
mmu.o:     file format elf64-littleaarch64


Disassembly of section .text:

0000000000000000 <phys_mem_access_prot>:
   0:	a9be7bfd 	stp	x29, x30, [sp, #-32]!
   4:	910003fd 	mov	x29, sp
   8:	a90153f3 	stp	x19, x20, [sp, #16]
   c:	aa0003f4 	mov	x20, x0
  10:	aa0303f3 	mov	x19, x3
  14:	aa0103e0 	mov	x0, x1
  18:	94000000 	bl	0 <pfn_valid>
  1c:	340001c0 	cbz	w0, 54 <phys_mem_access_prot+0x54>
  20:	b9404281 	ldr	w1, [x20, #64]
  24:	92800380 	mov	x0, #0xffffffffffffffe3    	// #-29
  28:	f2fff3e0 	movk	x0, #0xff9f, lsl #48
  2c:	d2800183 	mov	x3, #0xc                   	// #12
  30:	8a000260 	and	x0, x19, x0
  34:	12142021 	and	w1, w1, #0x1ff000
  38:	f2e00c03 	movk	x3, #0x60, lsl #48
  3c:	720c6021 	ands	w1, w1, #0xfff01fff
  40:	aa030000 	orr	x0, x0, x3
  44:	9a931000 	csel	x0, x0, x19, ne  // ne = any
  48:	a94153f3 	ldp	x19, x20, [sp, #16]
  4c:	a8c27bfd 	ldp	x29, x30, [sp], #32
  50:	d65f03c0 	ret
  54:	92800380 	mov	x0, #0xffffffffffffffe3    	// #-29
  58:	f2fff3e0 	movk	x0, #0xff9f, lsl #48
  5c:	8a000260 	and	x0, x19, x0
  60:	b24b0400 	orr	x0, x0, #0x60000000000000
  64:	a94153f3 	ldp	x19, x20, [sp, #16]
  68:	a8c27bfd 	ldp	x29, x30, [sp], #32
  6c:	d65f03c0 	ret

0000000000000070 <pgattr_change_is_safe>:
  70:	f100001f 	cmp	x0, #0x0
  74:	1a9f17e2 	cset	w2, eq  // eq = none
  78:	f100003f 	cmp	x1, #0x0
  7c:	1a9f1442 	csinc	w2, w2, wzr, ne  // ne = any
  80:	350001a2 	cbnz	w2, b4 <pgattr_change_is_safe+0x44>
  84:	8a210002 	bic	x2, x0, x1
  88:	aa010003 	orr	x3, x0, x1
  8c:	92750042 	and	x2, x2, #0x800
  90:	ca010000 	eor	x0, x0, x1
  94:	924c0063 	and	x3, x3, #0x10000000000000
  98:	92811001 	mov	x1, #0xfffffffffffff77f    	// #-2177
  9c:	aa030042 	orr	x2, x2, x3
  a0:	f2fffae1 	movk	x1, #0xffd7, lsl #48
  a4:	8a010000 	and	x0, x0, x1
  a8:	aa000040 	orr	x0, x2, x0
  ac:	f100001f 	cmp	x0, #0x0
  b0:	1a9f17e2 	cset	w2, eq  // eq = none
  b4:	2a0203e0 	mov	w0, w2
  b8:	d65f03c0 	ret
  bc:	d503201f 	nop

00000000000000c0 <pgd_pgtable_alloc>:
  c0:	a9be7bfd 	stp	x29, x30, [sp, #-32]!
  c4:	52800001 	mov	w1, #0x0                   	// #0
  c8:	5281b800 	mov	w0, #0xdc0                 	// #3520
  cc:	910003fd 	mov	x29, sp
  d0:	a90153f3 	stp	x19, x20, [sp, #16]
  d4:	94000000 	bl	0 <__get_free_pages>
  d8:	b4000380 	cbz	x0, 148 <pgd_pgtable_alloc+0x88>
  dc:	9240b814 	and	x20, x0, #0x7fffffffffff
  e0:	aa0003f3 	mov	x19, x0
  e4:	d2cfc000 	mov	x0, #0x7e0000000000        	// #138538465099776
  e8:	52800101 	mov	w1, #0x8                   	// #8
  ec:	d34cfe82 	lsr	x2, x20, #12
  f0:	f2ffffe0 	movk	x0, #0xffff, lsl #48
  f4:	aa021802 	orr	x2, x0, x2, lsl #6
  f8:	aa0203e0 	mov	x0, x2
  fc:	b9403043 	ldr	w3, [x2, #48]
 100:	b900285f 	str	wzr, [x2, #40]
 104:	12157863 	and	w3, w3, #0xfffffbff
 108:	b9003043 	str	w3, [x2, #48]
 10c:	94000000 	bl	0 <inc_zone_page_state>
 110:	d5033a9f 	dsb	ishst
 114:	b77800f3 	tbnz	x19, #47, 130 <pgd_pgtable_alloc+0x70>
 118:	90000000 	adrp	x0, 0 <phys_mem_access_prot>
 11c:	f9400000 	ldr	x0, [x0]
 120:	cb000260 	sub	x0, x19, x0
 124:	a94153f3 	ldp	x19, x20, [sp, #16]
 128:	a8c27bfd 	ldp	x29, x30, [sp], #32
 12c:	d65f03c0 	ret
 130:	90000000 	adrp	x0, 0 <memstart_addr>
 134:	f9400000 	ldr	x0, [x0]
 138:	8b000280 	add	x0, x20, x0
 13c:	a94153f3 	ldp	x19, x20, [sp, #16]
 140:	a8c27bfd 	ldp	x29, x30, [sp], #32
 144:	d65f03c0 	ret
 148:	d4210000 	brk	#0x800
 14c:	d503201f 	nop

0000000000000150 <pmd_free_pte_page.part.4>:
 150:	a9bf7bfd 	stp	x29, x30, [sp, #-16]!
 154:	90000002 	adrp	x2, 0 <memstart_addr>
 158:	d34cfc21 	lsr	x1, x1, #12
 15c:	910003fd 	mov	x29, sp
 160:	f9400003 	ldr	x3, [x0]
 164:	f9400044 	ldr	x4, [x2]
 168:	d37d2022 	ubfiz	x2, x1, #3, #9
 16c:	f900001f 	str	xzr, [x0]
 170:	92748c60 	and	x0, x3, #0xfffffffff000
 174:	8b000040 	add	x0, x2, x0
 178:	cb040000 	sub	x0, x0, x4
 17c:	b2514000 	orr	x0, x0, #0xffff800000000000
 180:	d5033a9f 	dsb	ishst
 184:	9240ac21 	and	x1, x1, #0xfffffffffff
 188:	d5088361 	tlbi	vaae1is, x1
 18c:	d503201f 	nop
 190:	d503201f 	nop
 194:	d5033b9f 	dsb	ish
 198:	52800001 	mov	w1, #0x0                   	// #0
 19c:	94000000 	bl	0 <free_pages>
 1a0:	a8c17bfd 	ldp	x29, x30, [sp], #16
 1a4:	d65f03c0 	ret

00000000000001a8 <kern_addr_valid>:
 1a8:	aa0003e1 	mov	x1, x0
 1ac:	9370fc00 	asr	x0, x0, #48
 1b0:	b100041f 	cmn	x0, #0x1
 1b4:	54000601 	b.ne	274 <kern_addr_valid+0xcc>  // b.any
 1b8:	90000002 	adrp	x2, 0 <init_mm>
 1bc:	d367bc24 	ubfx	x4, x1, #39, #9
 1c0:	52800000 	mov	w0, #0x0                   	// #0
 1c4:	f9400043 	ldr	x3, [x2]
 1c8:	f8647862 	ldr	x2, [x3, x4, lsl #3]
 1cc:	b4000582 	cbz	x2, 27c <kern_addr_valid+0xd4>
 1d0:	90000005 	adrp	x5, 0 <memstart_addr>
 1d4:	d35e9822 	ubfx	x2, x1, #30, #9
 1d8:	f8647863 	ldr	x3, [x3, x4, lsl #3]
 1dc:	d37df042 	lsl	x2, x2, #3
 1e0:	f94000a4 	ldr	x4, [x5]
 1e4:	92748c63 	and	x3, x3, #0xfffffffff000
 1e8:	cb040042 	sub	x2, x2, x4
 1ec:	8b030042 	add	x2, x2, x3
 1f0:	b2514042 	orr	x2, x2, #0xffff800000000000
 1f4:	f9400043 	ldr	x3, [x2]
 1f8:	b4000423 	cbz	x3, 27c <kern_addr_valid+0xd4>
 1fc:	a9bf7bfd 	stp	x29, x30, [sp, #-16]!
 200:	92400465 	and	x5, x3, #0x3
 204:	f10004bf 	cmp	x5, #0x1
 208:	910003fd 	mov	x29, sp
 20c:	540003a0 	b.eq	280 <kern_addr_valid+0xd8>  // b.none
 210:	d3557423 	ubfx	x3, x1, #21, #9
 214:	f9400045 	ldr	x5, [x2]
 218:	d37df062 	lsl	x2, x3, #3
 21c:	cb040042 	sub	x2, x2, x4
 220:	92748ca3 	and	x3, x5, #0xfffffffff000
 224:	8b030042 	add	x2, x2, x3
 228:	b2514042 	orr	x2, x2, #0xffff800000000000
 22c:	f9400043 	ldr	x3, [x2]
 230:	b40001e3 	cbz	x3, 26c <kern_addr_valid+0xc4>
 234:	92400465 	and	x5, x3, #0x3
 238:	f10004bf 	cmp	x5, #0x1
 23c:	540002a0 	b.eq	290 <kern_addr_valid+0xe8>  // b.none
 240:	d34c5021 	ubfx	x1, x1, #12, #9
 244:	f9400042 	ldr	x2, [x2]
 248:	d37df021 	lsl	x1, x1, #3
 24c:	cb040021 	sub	x1, x1, x4
 250:	92748c42 	and	x2, x2, #0xfffffffff000
 254:	8b020021 	add	x1, x1, x2
 258:	b2514021 	orr	x1, x1, #0xffff800000000000
 25c:	f9400021 	ldr	x1, [x1]
 260:	b4000061 	cbz	x1, 26c <kern_addr_valid+0xc4>
 264:	d34cbc20 	ubfx	x0, x1, #12, #36
 268:	94000000 	bl	0 <pfn_valid>
 26c:	a8c17bfd 	ldp	x29, x30, [sp], #16
 270:	d65f03c0 	ret
 274:	52800000 	mov	w0, #0x0                   	// #0
 278:	d65f03c0 	ret
 27c:	d65f03c0 	ret
 280:	d34cfc60 	lsr	x0, x3, #12
 284:	926e4400 	and	x0, x0, #0xffffc0000
 288:	94000000 	bl	0 <pfn_valid>
 28c:	17fffff8 	b	26c <kern_addr_valid+0xc4>
 290:	d34cfc60 	lsr	x0, x3, #12
 294:	92776800 	and	x0, x0, #0xffffffe00
 298:	94000000 	bl	0 <pfn_valid>
 29c:	17fffff4 	b	26c <kern_addr_valid+0xc4>

00000000000002a0 <vmemmap_free>:
 2a0:	d65f03c0 	ret
 2a4:	d503201f 	nop

00000000000002a8 <__set_fixmap>:
 2a8:	51000404 	sub	w4, w0, #0x1
 2ac:	53144c03 	lsl	w3, w0, #12
 2b0:	d2bfd800 	mov	x0, #0xfec00000            	// #4273995776
 2b4:	7117249f 	cmp	w4, #0x5c9
 2b8:	f2cfbfe0 	movk	x0, #0x7dff, lsl #32
 2bc:	f2ffffe0 	movk	x0, #0xffff, lsl #48
 2c0:	cb030000 	sub	x0, x0, x3
 2c4:	540004c8 	b.hi	35c <__set_fixmap+0xb4>  // b.pmore
 2c8:	d34cfc00 	lsr	x0, x0, #12
 2cc:	90000004 	adrp	x4, 0 <phys_mem_access_prot>
 2d0:	92402005 	and	x5, x0, #0x1ff
 2d4:	91000084 	add	x4, x4, #0x0
 2d8:	b50002a2 	cbnz	x2, 32c <__set_fixmap+0x84>
 2dc:	929dffe1 	mov	x1, #0xffffffffffff1000    	// #-61440
 2e0:	9240ac00 	and	x0, x0, #0xfffffffffff
 2e4:	f2bfd801 	movk	x1, #0xfec0, lsl #16
 2e8:	f825789f 	str	xzr, [x4, x5, lsl #3]
 2ec:	f2cfbfe1 	movk	x1, #0x7dff, lsl #32
 2f0:	cb030021 	sub	x1, x1, x3
 2f4:	d34cdc21 	ubfx	x1, x1, #12, #44
 2f8:	d5033a9f 	dsb	ishst
 2fc:	eb01001f 	cmp	x0, x1
 300:	54000102 	b.cs	320 <__set_fixmap+0x78>  // b.hs, b.nlast
 304:	d503201f 	nop
 308:	d50883e0 	tlbi	vaale1is, x0
 30c:	d503201f 	nop
 310:	d503201f 	nop
 314:	91000400 	add	x0, x0, #0x1
 318:	eb00003f 	cmp	x1, x0
 31c:	54ffff61 	b.ne	308 <__set_fixmap+0x60>  // b.any
 320:	d5033b9f 	dsb	ish
 324:	d5033fdf 	isb
 328:	d65f03c0 	ret
 32c:	9274cc21 	and	x1, x1, #0xfffffffffffff000
 330:	d2800820 	mov	x0, #0x41                  	// #65
 334:	f2e00800 	movk	x0, #0x40, lsl #48
 338:	aa020022 	orr	x2, x1, x2
 33c:	f8257882 	str	x2, [x4, x5, lsl #3]
 340:	8a000042 	and	x2, x2, x0
 344:	d2800020 	mov	x0, #0x1                   	// #1
 348:	f2e00800 	movk	x0, #0x40, lsl #48
 34c:	eb00005f 	cmp	x2, x0
 350:	54fffec1 	b.ne	328 <__set_fixmap+0x80>  // b.any
 354:	d5033a9f 	dsb	ishst
 358:	d65f03c0 	ret
 35c:	d4210000 	brk	#0x800

0000000000000360 <set_swapper_pgd>:
 360:	a9bd7bfd 	stp	x29, x30, [sp, #-48]!
 364:	910003fd 	mov	x29, sp
 368:	a90153f3 	stp	x19, x20, [sp, #16]
 36c:	90000014 	adrp	x20, 0 <phys_mem_access_prot>
 370:	91000294 	add	x20, x20, #0x0
 374:	a9025bf5 	stp	x21, x22, [sp, #32]
 378:	90000015 	adrp	x21, 0 <phys_mem_access_prot>
 37c:	aa0003f3 	mov	x19, x0
 380:	aa0103f6 	mov	x22, x1
 384:	aa1403e0 	mov	x0, x20
 388:	94000000 	bl	0 <_raw_spin_lock>
 38c:	f94002a0 	ldr	x0, [x21]
 390:	aa1303e1 	mov	x1, x19
 394:	cb000021 	sub	x1, x1, x0
 398:	1400001b 	b	404 <set_swapper_pgd+0xa4>
 39c:	d503201f 	nop
 3a0:	d280e262 	mov	x2, #0x713                 	// #1811
 3a4:	f2e01d02 	movk	x2, #0xe8, lsl #48
 3a8:	5280b940 	mov	w0, #0x5ca                 	// #1482
 3ac:	94000000 	bl	2a8 <__set_fixmap>
 3b0:	f94002a3 	ldr	x3, [x21]
 3b4:	aa1303e0 	mov	x0, x19
 3b8:	9293ffe4 	mov	x4, #0xffffffffffff6000    	// #-40960
 3bc:	d2800002 	mov	x2, #0x0                   	// #0
 3c0:	cb030000 	sub	x0, x0, x3
 3c4:	f2bfcc64 	movk	x4, #0xfe63, lsl #16
 3c8:	92402c03 	and	x3, x0, #0xfff
 3cc:	f2cfbfe4 	movk	x4, #0x7dff, lsl #32
 3d0:	d2800001 	mov	x1, #0x0                   	// #0
 3d4:	5280b940 	mov	w0, #0x5ca                 	// #1482
 3d8:	f8246876 	str	x22, [x3, x4]
 3dc:	94000000 	bl	2a8 <__set_fixmap>
 3e0:	aa1403e0 	mov	x0, x20
 3e4:	94000000 	bl	0 <_raw_spin_unlock>
 3e8:	a94153f3 	ldp	x19, x20, [sp, #16]
 3ec:	a9425bf5 	ldp	x21, x22, [sp, #32]
 3f0:	a8c37bfd 	ldp	x29, x30, [sp], #48
 3f4:	d65f03c0 	ret
 3f8:	d281e262 	mov	x2, #0xf13                 	// #3859
 3fc:	f2e01d02 	movk	x2, #0xe8, lsl #48
 400:	17ffffea 	b	3a8 <set_swapper_pgd+0x48>
 404:	90000003 	adrp	x3, 0 <cpu_hwcaps>
 408:	d280e262 	mov	x2, #0x713                 	// #1811
 40c:	d281e260 	mov	x0, #0xf13                 	// #3859
 410:	f2e01d02 	movk	x2, #0xe8, lsl #48
 414:	f9400063 	ldr	x3, [x3]
 418:	f2e01d00 	movk	x0, #0xe8, lsl #48
 41c:	7209007f 	tst	w3, #0x800000
 420:	9a800042 	csel	x2, x2, x0, eq  // eq = none
 424:	17ffffe1 	b	3a8 <set_swapper_pgd+0x48>

0000000000000428 <pud_set_huge>:
 428:	a9bf7bfd 	stp	x29, x30, [sp, #-16]!
 42c:	927ef844 	and	x4, x2, #0xfffffffffffffffd
 430:	9274cc22 	and	x2, x1, #0xfffffffffffff000
 434:	910003fd 	mov	x29, sp
 438:	aa0003e6 	mov	x6, x0
 43c:	aa020084 	orr	x4, x4, x2
 440:	f9400000 	ldr	x0, [x0]
 444:	aa0103e5 	mov	x5, x1
 448:	b2400084 	orr	x4, x4, #0x1
 44c:	aa0403e1 	mov	x1, x4
 450:	97ffff08 	bl	70 <pgattr_change_is_safe>
 454:	72001c1f 	tst	w0, #0xff
 458:	54000100 	b.eq	478 <pud_set_huge+0x50>  // b.none
 45c:	f24074bf 	tst	x5, #0x3fffffff
 460:	54000121 	b.ne	484 <pud_set_huge+0x5c>  // b.any
 464:	f90000c4 	str	x4, [x6]
 468:	d5033a9f 	dsb	ishst
 46c:	52800020 	mov	w0, #0x1                   	// #1
 470:	a8c17bfd 	ldp	x29, x30, [sp], #16
 474:	d65f03c0 	ret
 478:	52800000 	mov	w0, #0x0                   	// #0
 47c:	a8c17bfd 	ldp	x29, x30, [sp], #16
 480:	d65f03c0 	ret
 484:	d4210000 	brk	#0x800

0000000000000488 <pmd_set_huge>:
 488:	a9bf7bfd 	stp	x29, x30, [sp, #-16]!
 48c:	927ef844 	and	x4, x2, #0xfffffffffffffffd
 490:	9274cc22 	and	x2, x1, #0xfffffffffffff000
 494:	910003fd 	mov	x29, sp
 498:	aa0003e6 	mov	x6, x0
 49c:	aa020084 	orr	x4, x4, x2
 4a0:	f9400000 	ldr	x0, [x0]
 4a4:	aa0103e5 	mov	x5, x1
 4a8:	b2400084 	orr	x4, x4, #0x1
 4ac:	aa0403e1 	mov	x1, x4
 4b0:	97fffef0 	bl	70 <pgattr_change_is_safe>
 4b4:	72001c1f 	tst	w0, #0xff
 4b8:	54000100 	b.eq	4d8 <pmd_set_huge+0x50>  // b.none
 4bc:	f24050bf 	tst	x5, #0x1fffff
 4c0:	54000121 	b.ne	4e4 <pmd_set_huge+0x5c>  // b.any
 4c4:	f90000c4 	str	x4, [x6]
 4c8:	d5033a9f 	dsb	ishst
 4cc:	52800020 	mov	w0, #0x1                   	// #1
 4d0:	a8c17bfd 	ldp	x29, x30, [sp], #16
 4d4:	d65f03c0 	ret
 4d8:	52800000 	mov	w0, #0x0                   	// #0
 4dc:	a8c17bfd 	ldp	x29, x30, [sp], #16
 4e0:	d65f03c0 	ret
 4e4:	d4210000 	brk	#0x800

00000000000004e8 <__create_pgd_mapping>:
 4e8:	a9b27bfd 	stp	x29, x30, [sp, #-224]!
 4ec:	ca010047 	eor	x7, x2, x1
 4f0:	d367bc48 	ubfx	x8, x2, #39, #9
 4f4:	910003fd 	mov	x29, sp
 4f8:	a90573fb 	stp	x27, x28, [sp, #80]
 4fc:	f2402cff 	tst	x7, #0xfff
 500:	8b080c1b 	add	x27, x0, x8, lsl #3
 504:	54002ae1 	b.ne	a60 <__create_pgd_mapping+0x578>  // b.any
 508:	92402c40 	and	x0, x2, #0xfff
 50c:	913ffc63 	add	x3, x3, #0xfff
 510:	8b030003 	add	x3, x0, x3
 514:	9274cc5c 	and	x28, x2, #0xfffffffffffff000
 518:	9274cc20 	and	x0, x1, #0xfffffffffffff000
 51c:	9274cc63 	and	x3, x3, #0xfffffffffffff000
 520:	a90a13e0 	stp	x0, x4, [sp, #160]
 524:	8b1c0060 	add	x0, x3, x28
 528:	a90153f3 	stp	x19, x20, [sp, #16]
 52c:	a90363f7 	stp	x23, x24, [sp, #48]
 530:	a9046bf9 	stp	x25, x26, [sp, #64]
 534:	f90033e5 	str	x5, [sp, #96]
 538:	b90073e6 	str	w6, [sp, #112]
 53c:	f90043e0 	str	x0, [sp, #128]
 540:	d1000400 	sub	x0, x0, #0x1
 544:	f90047e0 	str	x0, [sp, #136]
 548:	d2c01000 	mov	x0, #0x8000000000          	// #549755813888
 54c:	8b000380 	add	x0, x28, x0
 550:	f94047e2 	ldr	x2, [sp, #136]
 554:	9259601a 	and	x26, x0, #0xffffff8000000000
 558:	d1000740 	sub	x0, x26, #0x1
 55c:	f9400361 	ldr	x1, [x27]
 560:	eb02001f 	cmp	x0, x2
 564:	f94043e0 	ldr	x0, [sp, #128]
 568:	9a80335a 	csel	x26, x26, x0, cc  // cc = lo, ul, last
 56c:	b50001c1 	cbnz	x1, 5a4 <__create_pgd_mapping+0xbc>
 570:	f94033e0 	ldr	x0, [sp, #96]
 574:	b4002980 	cbz	x0, aa4 <__create_pgd_mapping+0x5bc>
 578:	f94033e0 	ldr	x0, [sp, #96]
 57c:	d63f0000 	blr	x0
 580:	b2400401 	orr	x1, x0, #0x3
 584:	90000002 	adrp	x2, 0 <swapper_pg_dir>
 588:	91000042 	add	x2, x2, #0x0
 58c:	ca020362 	eor	x2, x27, x2
 590:	f274cc5f 	tst	x2, #0xfffffffffffff000
 594:	54002720 	b.eq	a78 <__create_pgd_mapping+0x590>  // b.none
 598:	f9000361 	str	x1, [x27]
 59c:	d5033a9f 	dsb	ishst
 5a0:	f9400361 	ldr	x1, [x27]
 5a4:	36082661 	tbz	w1, #1, a70 <__create_pgd_mapping+0x588>
 5a8:	f9400361 	ldr	x1, [x27]
 5ac:	d35e9b86 	ubfx	x6, x28, #30, #9
 5b0:	92748c21 	and	x1, x1, #0xfffffffff000
 5b4:	d37df0c6 	lsl	x6, x6, #3
 5b8:	8b060021 	add	x1, x1, x6
 5bc:	14000005 	b	5d0 <__create_pgd_mapping+0xe8>
 5c0:	d503201f 	nop
 5c4:	d280e262 	mov	x2, #0x713                 	// #1811
 5c8:	f2e01d02 	movk	x2, #0xe8, lsl #48
 5cc:	14000009 	b	5f0 <__create_pgd_mapping+0x108>
 5d0:	90000000 	adrp	x0, 0 <cpu_hwcaps>
 5d4:	d280e262 	mov	x2, #0x713                 	// #1811
 5d8:	f2e01d02 	movk	x2, #0xe8, lsl #48
 5dc:	f9400000 	ldr	x0, [x0]
 5e0:	f269001f 	tst	x0, #0x800000
 5e4:	d281e260 	mov	x0, #0xf13                 	// #3859
 5e8:	f2e01d00 	movk	x0, #0xe8, lsl #48
 5ec:	9a800042 	csel	x2, x2, x0, eq  // eq = none
 5f0:	5280b920 	mov	w0, #0x5c9                 	// #1481
 5f4:	94000000 	bl	2a8 <__set_fixmap>
 5f8:	f9400360 	ldr	x0, [x27]
 5fc:	a90c6ffc 	stp	x28, x27, [sp, #192]
 600:	9291ffe0 	mov	x0, #0xffffffffffff7000    	// #-36864
 604:	f2bfcc60 	movk	x0, #0xfe63, lsl #16
 608:	aa1c03fb 	mov	x27, x28
 60c:	f2cfbfe0 	movk	x0, #0x7dff, lsl #32
 610:	8b0000d8 	add	x24, x6, x0
 614:	d1000740 	sub	x0, x26, #0x1
 618:	f9004fe0 	str	x0, [sp, #152]
 61c:	f94053e0 	ldr	x0, [sp, #160]
 620:	f90037e0 	str	x0, [sp, #104]
 624:	f9003ffa 	str	x26, [sp, #120]
 628:	d2a80013 	mov	x19, #0x40000000            	// #1073741824
 62c:	8b130373 	add	x19, x27, x19
 630:	f9404fe2 	ldr	x2, [sp, #152]
 634:	92628673 	and	x19, x19, #0xffffffffc0000000
 638:	d1000661 	sub	x1, x19, #0x1
 63c:	eb01005f 	cmp	x2, x1
 640:	f9400301 	ldr	x1, [x24]
 644:	f9005be1 	str	x1, [sp, #176]
 648:	f94037e0 	ldr	x0, [sp, #104]
 64c:	f9403fe1 	ldr	x1, [sp, #120]
 650:	aa000360 	orr	x0, x27, x0
 654:	9a818273 	csel	x19, x19, x1, hi  // hi = pmore
 658:	aa130000 	orr	x0, x0, x19
 65c:	f240741f 	tst	x0, #0x3fffffff
 660:	54000061 	b.ne	66c <__create_pgd_mapping+0x184>  // b.any
 664:	f9403be0 	ldr	x0, [sp, #112]
 668:	360015e0 	tbz	w0, #0, 924 <__create_pgd_mapping+0x43c>
 66c:	f9400300 	ldr	x0, [x24]
 670:	92400401 	and	x1, x0, #0x3
 674:	f100043f 	cmp	x1, #0x1
 678:	54002080 	b.eq	a88 <__create_pgd_mapping+0x5a0>  // b.none
 67c:	b5000120 	cbnz	x0, 6a0 <__create_pgd_mapping+0x1b8>
 680:	f94033e0 	ldr	x0, [sp, #96]
 684:	b4002140 	cbz	x0, aac <__create_pgd_mapping+0x5c4>
 688:	f94033e0 	ldr	x0, [sp, #96]
 68c:	d63f0000 	blr	x0
 690:	b2400400 	orr	x0, x0, #0x3
 694:	f9000300 	str	x0, [x24]
 698:	d5033a9f 	dsb	ishst
 69c:	f9400300 	ldr	x0, [x24]
 6a0:	a9025bf5 	stp	x21, x22, [sp, #32]
 6a4:	36081f60 	tbz	w0, #1, a90 <__create_pgd_mapping+0x5a8>
 6a8:	d100067a 	sub	x26, x19, #0x1
 6ac:	aa1b03fc 	mov	x28, x27
 6b0:	f94037e0 	ldr	x0, [sp, #104]
 6b4:	f9004be0 	str	x0, [sp, #144]
 6b8:	f9005ff3 	str	x19, [sp, #184]
 6bc:	f9006ffb 	str	x27, [sp, #216]
 6c0:	d2a04015 	mov	x21, #0x2000000             	// #33554432
 6c4:	8b150395 	add	x21, x28, x21
 6c8:	92679ab5 	and	x21, x21, #0xfffffffffe000000
 6cc:	d10006a1 	sub	x1, x21, #0x1
 6d0:	eb1a003f 	cmp	x1, x26
 6d4:	9a9a303b 	csel	x27, x1, x26, cc  // cc = lo, ul, last
 6d8:	f9404be0 	ldr	x0, [sp, #144]
 6dc:	f9405fe1 	ldr	x1, [sp, #184]
 6e0:	aa000380 	orr	x0, x28, x0
 6e4:	9a8132b5 	csel	x21, x21, x1, cc  // cc = lo, ul, last
 6e8:	f94057e1 	ldr	x1, [sp, #168]
 6ec:	aa150000 	orr	x0, x0, x21
 6f0:	aa0103f7 	mov	x23, x1
 6f4:	f240601f 	tst	x0, #0x1ffffff
 6f8:	540000a1 	b.ne	70c <__create_pgd_mapping+0x224>  // b.any
 6fc:	f9403be0 	ldr	x0, [sp, #112]
 700:	b24c0037 	orr	x23, x1, #0x10000000000000
 704:	f27f001f 	tst	x0, #0x2
 708:	9a8102f7 	csel	x23, x23, x1, eq  // eq = none
 70c:	f9400301 	ldr	x1, [x24]
 710:	d3557794 	ubfx	x20, x28, #21, #9
 714:	92748c21 	and	x1, x1, #0xfffffffff000
 718:	d37df294 	lsl	x20, x20, #3
 71c:	8b140021 	add	x1, x1, x20
 720:	14000005 	b	734 <__create_pgd_mapping+0x24c>
 724:	d503201f 	nop
 728:	d280e262 	mov	x2, #0x713                 	// #1811
 72c:	f2e01d02 	movk	x2, #0xe8, lsl #48
 730:	14000009 	b	754 <__create_pgd_mapping+0x26c>
 734:	90000000 	adrp	x0, 0 <cpu_hwcaps>
 738:	d281e262 	mov	x2, #0xf13                 	// #3859
 73c:	f2e01d02 	movk	x2, #0xe8, lsl #48
 740:	f9400000 	ldr	x0, [x0]
 744:	f269001f 	tst	x0, #0x800000
 748:	d280e260 	mov	x0, #0x713                 	// #1811
 74c:	f2e01d00 	movk	x0, #0xe8, lsl #48
 750:	9a820002 	csel	x2, x0, x2, eq  // eq = none
 754:	5280b900 	mov	w0, #0x5c8                 	// #1480
 758:	94000000 	bl	2a8 <__set_fixmap>
 75c:	f9400300 	ldr	x0, [x24]
 760:	aa1c03f6 	mov	x22, x28
 764:	928fffe0 	mov	x0, #0xffffffffffff8000    	// #-32768
 768:	f9006bf8 	str	x24, [sp, #208]
 76c:	f2bfcc60 	movk	x0, #0xfe63, lsl #16
 770:	f9404bf9 	ldr	x25, [sp, #144]
 774:	f2cfbfe0 	movk	x0, #0x7dff, lsl #32
 778:	8b000294 	add	x20, x20, x0
 77c:	914802d3 	add	x19, x22, #0x200, lsl #12
 780:	aa1902c0 	orr	x0, x22, x25
 784:	926baa73 	and	x19, x19, #0xffffffffffe00000
 788:	d1000661 	sub	x1, x19, #0x1
 78c:	eb1b003f 	cmp	x1, x27
 790:	f9400298 	ldr	x24, [x20]
 794:	9a953273 	csel	x19, x19, x21, cc  // cc = lo, ul, last
 798:	aa130000 	orr	x0, x0, x19
 79c:	f240501f 	tst	x0, #0x1fffff
 7a0:	54000061 	b.ne	7ac <__create_pgd_mapping+0x2c4>  // b.any
 7a4:	f9403be0 	ldr	x0, [sp, #112]
 7a8:	360011a0 	tbz	w0, #0, 9dc <__create_pgd_mapping+0x4f4>
 7ac:	f9400280 	ldr	x0, [x20]
 7b0:	92400401 	and	x1, x0, #0x3
 7b4:	f100043f 	cmp	x1, #0x1
 7b8:	540016e0 	b.eq	a94 <__create_pgd_mapping+0x5ac>  // b.none
 7bc:	b5000120 	cbnz	x0, 7e0 <__create_pgd_mapping+0x2f8>
 7c0:	f94033e0 	ldr	x0, [sp, #96]
 7c4:	b4001780 	cbz	x0, ab4 <__create_pgd_mapping+0x5cc>
 7c8:	f94033e0 	ldr	x0, [sp, #96]
 7cc:	d63f0000 	blr	x0
 7d0:	b2400400 	orr	x0, x0, #0x3
 7d4:	f9000280 	str	x0, [x20]
 7d8:	d5033a9f 	dsb	ishst
 7dc:	f9400280 	ldr	x0, [x20]
 7e0:	36081600 	tbz	w0, #1, aa0 <__create_pgd_mapping+0x5b8>
 7e4:	d2800829 	mov	x9, #0x41                  	// #65
 7e8:	d2800028 	mov	x8, #0x1                   	// #1
 7ec:	d100066c 	sub	x12, x19, #0x1
 7f0:	aa1903eb 	mov	x11, x25
 7f4:	aa1603ea 	mov	x10, x22
 7f8:	f2e00809 	movk	x9, #0x40, lsl #48
 7fc:	f2e00808 	movk	x8, #0x40, lsl #48
 800:	91404146 	add	x6, x10, #0x10, lsl #12
 804:	aa0b0140 	orr	x0, x10, x11
 808:	9270bcc6 	and	x6, x6, #0xffffffffffff0000
 80c:	aa1703e7 	mov	x7, x23
 810:	d10004c1 	sub	x1, x6, #0x1
 814:	eb0c003f 	cmp	x1, x12
 818:	9a9330c6 	csel	x6, x6, x19, cc  // cc = lo, ul, last
 81c:	aa060000 	orr	x0, x0, x6
 820:	92403c00 	and	x0, x0, #0xffff
 824:	b50000a0 	cbnz	x0, 838 <__create_pgd_mapping+0x350>
 828:	f9403be0 	ldr	x0, [sp, #112]
 82c:	b24c02e7 	orr	x7, x23, #0x10000000000000
 830:	f27f001f 	tst	x0, #0x2
 834:	9a9700e7 	csel	x7, x7, x23, eq  // eq = none
 838:	f9400281 	ldr	x1, [x20]
 83c:	d34c5144 	ubfx	x4, x10, #12, #9
 840:	92748c21 	and	x1, x1, #0xfffffffff000
 844:	d37df08d 	lsl	x13, x4, #3
 848:	8b0d0021 	add	x1, x1, x13
 84c:	14000005 	b	860 <__create_pgd_mapping+0x378>
 850:	d503201f 	nop
 854:	d280e262 	mov	x2, #0x713                 	// #1811
 858:	f2e01d02 	movk	x2, #0xe8, lsl #48
 85c:	14000009 	b	880 <__create_pgd_mapping+0x398>
 860:	90000000 	adrp	x0, 0 <cpu_hwcaps>
 864:	d281e262 	mov	x2, #0xf13                 	// #3859
 868:	f2e01d02 	movk	x2, #0xe8, lsl #48
 86c:	f9400000 	ldr	x0, [x0]
 870:	f269001f 	tst	x0, #0x800000
 874:	d280e260 	mov	x0, #0x713                 	// #1811
 878:	f2e01d00 	movk	x0, #0xe8, lsl #48
 87c:	9a820002 	csel	x2, x0, x2, eq  // eq = none
 880:	5280b8e0 	mov	w0, #0x5c7                 	// #1479
 884:	94000000 	bl	2a8 <__set_fixmap>
 888:	f9400280 	ldr	x0, [x20]
 88c:	aa0a03e5 	mov	x5, x10
 890:	928dffe0 	mov	x0, #0xffffffffffff9000    	// #-28672
 894:	f2bfcc60 	movk	x0, #0xfe63, lsl #16
 898:	f2cfbfe0 	movk	x0, #0x7dff, lsl #32
 89c:	8b0001a4 	add	x4, x13, x0
 8a0:	cb0a016d 	sub	x13, x11, x10
 8a4:	14000005 	b	8b8 <__create_pgd_mapping+0x3d0>
 8a8:	914004a5 	add	x5, x5, #0x1, lsl #12
 8ac:	91002084 	add	x4, x4, #0x8
 8b0:	eb0500df 	cmp	x6, x5
 8b4:	540001c0 	b.eq	8ec <__create_pgd_mapping+0x404>  // b.none
 8b8:	f9400080 	ldr	x0, [x4]
 8bc:	8b0501a1 	add	x1, x13, x5
 8c0:	aa070021 	orr	x1, x1, x7
 8c4:	f9000081 	str	x1, [x4]
 8c8:	8a090021 	and	x1, x1, x9
 8cc:	eb08003f 	cmp	x1, x8
 8d0:	54000041 	b.ne	8d8 <__create_pgd_mapping+0x3f0>  // b.any
 8d4:	d5033a9f 	dsb	ishst
 8d8:	f9400081 	ldr	x1, [x4]
 8dc:	97fffde5 	bl	70 <pgattr_change_is_safe>
 8e0:	72001c1f 	tst	w0, #0xff
 8e4:	54fffe21 	b.ne	8a8 <__create_pgd_mapping+0x3c0>  // b.any
 8e8:	d4210000 	brk	#0x800
 8ec:	d2800002 	mov	x2, #0x0                   	// #0
 8f0:	d2800001 	mov	x1, #0x0                   	// #0
 8f4:	5280b8e0 	mov	w0, #0x5c7                 	// #1479
 8f8:	94000000 	bl	2a8 <__set_fixmap>
 8fc:	cb0a00ca 	sub	x10, x6, x10
 900:	eb06027f 	cmp	x19, x6
 904:	8b0a016b 	add	x11, x11, x10
 908:	aa0603ea 	mov	x10, x6
 90c:	54fff7a1 	b.ne	800 <__create_pgd_mapping+0x318>  // b.any
 910:	b4000798 	cbz	x24, a00 <__create_pgd_mapping+0x518>
 914:	f9400280 	ldr	x0, [x20]
 918:	eb00031f 	cmp	x24, x0
 91c:	54000720 	b.eq	a00 <__create_pgd_mapping+0x518>  // b.none
 920:	d4210000 	brk	#0x800
 924:	f94037e1 	ldr	x1, [sp, #104]
 928:	aa1803e0 	mov	x0, x24
 92c:	f94057e2 	ldr	x2, [sp, #168]
 930:	94000000 	bl	428 <pud_set_huge>
 934:	f9400301 	ldr	x1, [x24]
 938:	f9405be0 	ldr	x0, [sp, #176]
 93c:	97fffdcd 	bl	70 <pgattr_change_is_safe>
 940:	72001c1f 	tst	w0, #0xff
 944:	54000aa0 	b.eq	a98 <__create_pgd_mapping+0x5b0>  // b.none
 948:	f94037e1 	ldr	x1, [sp, #104]
 94c:	cb1b0260 	sub	x0, x19, x27
 950:	91002318 	add	x24, x24, #0x8
 954:	aa1303fb 	mov	x27, x19
 958:	8b000020 	add	x0, x1, x0
 95c:	f90037e0 	str	x0, [sp, #104]
 960:	f9403fe0 	ldr	x0, [sp, #120]
 964:	eb13001f 	cmp	x0, x19
 968:	54ffe601 	b.ne	628 <__create_pgd_mapping+0x140>  // b.any
 96c:	a94c6ffc 	ldp	x28, x27, [sp, #192]
 970:	d2800001 	mov	x1, #0x0                   	// #0
 974:	aa0003fa 	mov	x26, x0
 978:	d2800002 	mov	x2, #0x0                   	// #0
 97c:	5280b920 	mov	w0, #0x5c9                 	// #1481
 980:	94000000 	bl	2a8 <__set_fixmap>
 984:	f94053e1 	ldr	x1, [sp, #160]
 988:	cb1c0340 	sub	x0, x26, x28
 98c:	9100237b 	add	x27, x27, #0x8
 990:	8b000020 	add	x0, x1, x0
 994:	f90053e0 	str	x0, [sp, #160]
 998:	f94043e0 	ldr	x0, [sp, #128]
 99c:	aa1a03fc 	mov	x28, x26
 9a0:	eb00035f 	cmp	x26, x0
 9a4:	54ffdd21 	b.ne	548 <__create_pgd_mapping+0x60>  // b.any
 9a8:	a94153f3 	ldp	x19, x20, [sp, #16]
 9ac:	a94363f7 	ldp	x23, x24, [sp, #48]
 9b0:	a9446bf9 	ldp	x25, x26, [sp, #64]
 9b4:	1400002c 	b	a64 <__create_pgd_mapping+0x57c>
 9b8:	d281e262 	mov	x2, #0xf13                 	// #3859
 9bc:	f2e01d02 	movk	x2, #0xe8, lsl #48
 9c0:	17ffff0c 	b	5f0 <__create_pgd_mapping+0x108>
 9c4:	d281e262 	mov	x2, #0xf13                 	// #3859
 9c8:	f2e01d02 	movk	x2, #0xe8, lsl #48
 9cc:	17ffffad 	b	880 <__create_pgd_mapping+0x398>
 9d0:	d281e262 	mov	x2, #0xf13                 	// #3859
 9d4:	f2e01d02 	movk	x2, #0xe8, lsl #48
 9d8:	17ffff5f 	b	754 <__create_pgd_mapping+0x26c>
 9dc:	aa1703e2 	mov	x2, x23
 9e0:	aa1903e1 	mov	x1, x25
 9e4:	aa1403e0 	mov	x0, x20
 9e8:	94000000 	bl	488 <pmd_set_huge>
 9ec:	f9400281 	ldr	x1, [x20]
 9f0:	aa1803e0 	mov	x0, x24
 9f4:	97fffd9f 	bl	70 <pgattr_change_is_safe>
 9f8:	72001c1f 	tst	w0, #0xff
 9fc:	540005e0 	b.eq	ab8 <__create_pgd_mapping+0x5d0>  // b.none
 a00:	cb160276 	sub	x22, x19, x22
 a04:	91002294 	add	x20, x20, #0x8
 a08:	8b160339 	add	x25, x25, x22
 a0c:	eb1302bf 	cmp	x21, x19
 a10:	aa1303f6 	mov	x22, x19
 a14:	54ffeb41 	b.ne	77c <__create_pgd_mapping+0x294>  // b.any
 a18:	5280b900 	mov	w0, #0x5c8                 	// #1480
 a1c:	d2800002 	mov	x2, #0x0                   	// #0
 a20:	d2800001 	mov	x1, #0x0                   	// #0
 a24:	cb1c02bc 	sub	x28, x21, x28
 a28:	f9406bf8 	ldr	x24, [sp, #208]
 a2c:	94000000 	bl	2a8 <__set_fixmap>
 a30:	f9405fe0 	ldr	x0, [sp, #184]
 a34:	eb15001f 	cmp	x0, x21
 a38:	f9404be0 	ldr	x0, [sp, #144]
 a3c:	8b1c0000 	add	x0, x0, x28
 a40:	f9004be0 	str	x0, [sp, #144]
 a44:	aa1503fc 	mov	x28, x21
 a48:	54ffe3c1 	b.ne	6c0 <__create_pgd_mapping+0x1d8>  // b.any
 a4c:	a94b4fe0 	ldp	x0, x19, [sp, #176]
 a50:	f9406ffb 	ldr	x27, [sp, #216]
 a54:	b5000340 	cbnz	x0, abc <__create_pgd_mapping+0x5d4>
 a58:	a9425bf5 	ldp	x21, x22, [sp, #32]
 a5c:	17ffffbb 	b	948 <__create_pgd_mapping+0x460>
 a60:	d4210000 	brk	#0x800
 a64:	a94573fb 	ldp	x27, x28, [sp, #80]
 a68:	a8ce7bfd 	ldp	x29, x30, [sp], #224
 a6c:	d65f03c0 	ret
 a70:	a9025bf5 	stp	x21, x22, [sp, #32]
 a74:	d4210000 	brk	#0x800
 a78:	aa1b03e0 	mov	x0, x27
 a7c:	94000000 	bl	360 <set_swapper_pgd>
 a80:	f9400361 	ldr	x1, [x27]
 a84:	17fffec8 	b	5a4 <__create_pgd_mapping+0xbc>
 a88:	a9025bf5 	stp	x21, x22, [sp, #32]
 a8c:	d4210000 	brk	#0x800
 a90:	d4210000 	brk	#0x800
 a94:	d4210000 	brk	#0x800
 a98:	a9025bf5 	stp	x21, x22, [sp, #32]
 a9c:	d4210000 	brk	#0x800
 aa0:	d4210000 	brk	#0x800
 aa4:	a9025bf5 	stp	x21, x22, [sp, #32]
 aa8:	d4210000 	brk	#0x800
 aac:	a9025bf5 	stp	x21, x22, [sp, #32]
 ab0:	d4210000 	brk	#0x800
 ab4:	d4210000 	brk	#0x800
 ab8:	d4210000 	brk	#0x800
 abc:	f9400300 	ldr	x0, [x24]
 ac0:	f9405be1 	ldr	x1, [sp, #176]
 ac4:	eb00003f 	cmp	x1, x0
 ac8:	54fffc80 	b.eq	a58 <__create_pgd_mapping+0x570>  // b.none
 acc:	d4210000 	brk	#0x800

0000000000000ad0 <update_mapping_prot>:
 ad0:	a9bd7bfd 	stp	x29, x30, [sp, #-48]!
 ad4:	910003fd 	mov	x29, sp
 ad8:	a90153f3 	stp	x19, x20, [sp, #16]
 adc:	aa0103f3 	mov	x19, x1
 ae0:	b250afe1 	mov	x1, #0xffff00000fffffff    	// #-281474708275201
 ae4:	f90017e0 	str	x0, [sp, #40]
 ae8:	eb01027f 	cmp	x19, x1
 aec:	540004e9 	b.ls	b88 <update_mapping_prot+0xb8>  // b.plast
 af0:	aa0203f4 	mov	x20, x2
 af4:	90000002 	adrp	x2, 0 <init_mm>
 af8:	aa0003e1 	mov	x1, x0
 afc:	aa0303e4 	mov	x4, x3
 b00:	f9400040 	ldr	x0, [x2]
 b04:	52800046 	mov	w6, #0x2                   	// #2
 b08:	d2800005 	mov	x5, #0x0                   	// #0
 b0c:	aa1403e3 	mov	x3, x20
 b10:	aa1303e2 	mov	x2, x19
 b14:	97fffe75 	bl	4e8 <__create_pgd_mapping>
 b18:	f148029f 	cmp	x20, #0x200, lsl #12
 b1c:	54000248 	b.hi	b64 <update_mapping_prot+0x94>  // b.pmore
 b20:	8b140260 	add	x0, x19, x20
 b24:	d34cde61 	ubfx	x1, x19, #12, #44
 b28:	d34cdc00 	ubfx	x0, x0, #12, #44
 b2c:	d5033a9f 	dsb	ishst
 b30:	eb00003f 	cmp	x1, x0
 b34:	540000e2 	b.cs	b50 <update_mapping_prot+0x80>  // b.hs, b.nlast
 b38:	d50883e1 	tlbi	vaale1is, x1
 b3c:	d503201f 	nop
 b40:	d503201f 	nop
 b44:	91000421 	add	x1, x1, #0x1
 b48:	eb01001f 	cmp	x0, x1
 b4c:	54ffff61 	b.ne	b38 <update_mapping_prot+0x68>  // b.any
 b50:	d5033b9f 	dsb	ish
 b54:	d5033fdf 	isb
 b58:	a94153f3 	ldp	x19, x20, [sp, #16]
 b5c:	a8c37bfd 	ldp	x29, x30, [sp], #48
 b60:	d65f03c0 	ret
 b64:	d5033a9f 	dsb	ishst
 b68:	d508831f 	tlbi	vmalle1is
 b6c:	d503201f 	nop
 b70:	d503201f 	nop
 b74:	d5033b9f 	dsb	ish
 b78:	d5033fdf 	isb
 b7c:	a94153f3 	ldp	x19, x20, [sp, #16]
 b80:	a8c37bfd 	ldp	x29, x30, [sp], #48
 b84:	d65f03c0 	ret
 b88:	aa1303e2 	mov	x2, x19
 b8c:	90000000 	adrp	x0, 0 <phys_mem_access_prot>
 b90:	9100a3e1 	add	x1, sp, #0x28
 b94:	91000000 	add	x0, x0, #0x0
 b98:	94000000 	bl	0 <printk>
 b9c:	17ffffef 	b	b58 <update_mapping_prot+0x88>

0000000000000ba0 <mark_rodata_ro>:
 ba0:	a9bf7bfd 	stp	x29, x30, [sp, #-16]!
 ba4:	90000000 	adrp	x0, 0 <phys_mem_access_prot>
 ba8:	90000001 	adrp	x1, 0 <__start_rodata>
 bac:	910003fd 	mov	x29, sp
 bb0:	f9400003 	ldr	x3, [x0]
 bb4:	91000021 	add	x1, x1, #0x0
 bb8:	90000002 	adrp	x2, 0 <__init_begin>
 bbc:	91000042 	add	x2, x2, #0x0
 bc0:	aa0103e0 	mov	x0, x1
 bc4:	cb010042 	sub	x2, x2, x1
 bc8:	cb030000 	sub	x0, x0, x3
 bcc:	1400000c 	b	bfc <mark_rodata_ro+0x5c>
 bd0:	d503201f 	nop
 bd4:	d280f263 	mov	x3, #0x793                 	// #1939
 bd8:	f2e01c03 	movk	x3, #0xe0, lsl #48
 bdc:	97ffffbd 	bl	ad0 <update_mapping_prot>
 be0:	a8c17bfd 	ldp	x29, x30, [sp], #16
 be4:	d65f03c0 	ret
 be8:	d281f263 	mov	x3, #0xf93                 	// #3987
 bec:	f2e01c03 	movk	x3, #0xe0, lsl #48
 bf0:	97ffffb8 	bl	ad0 <update_mapping_prot>
 bf4:	a8c17bfd 	ldp	x29, x30, [sp], #16
 bf8:	d65f03c0 	ret
 bfc:	90000005 	adrp	x5, 0 <cpu_hwcaps>
 c00:	d281f264 	mov	x4, #0xf93                 	// #3987
 c04:	f2e01c04 	movk	x4, #0xe0, lsl #48
 c08:	d280f263 	mov	x3, #0x793                 	// #1939
 c0c:	f94000a5 	ldr	x5, [x5]
 c10:	f2e01c03 	movk	x3, #0xe0, lsl #48
 c14:	720900bf 	tst	w5, #0x800000
 c18:	9a840063 	csel	x3, x3, x4, eq  // eq = none
 c1c:	97ffffad 	bl	ad0 <update_mapping_prot>
 c20:	a8c17bfd 	ldp	x29, x30, [sp], #16
 c24:	d65f03c0 	ret

0000000000000c28 <pud_clear_huge>:
 c28:	f9400001 	ldr	x1, [x0]
 c2c:	92400421 	and	x1, x1, #0x3
 c30:	f100043f 	cmp	x1, #0x1
 c34:	54000081 	b.ne	c44 <pud_clear_huge+0x1c>  // b.any
 c38:	f900001f 	str	xzr, [x0]
 c3c:	2a0103e0 	mov	w0, w1
 c40:	d65f03c0 	ret
 c44:	52800001 	mov	w1, #0x0                   	// #0
 c48:	2a0103e0 	mov	w0, w1
 c4c:	d65f03c0 	ret

0000000000000c50 <pmd_clear_huge>:
 c50:	f9400001 	ldr	x1, [x0]
 c54:	92400421 	and	x1, x1, #0x3
 c58:	f100043f 	cmp	x1, #0x1
 c5c:	54000081 	b.ne	c6c <pmd_clear_huge+0x1c>  // b.any
 c60:	f900001f 	str	xzr, [x0]
 c64:	2a0103e0 	mov	w0, w1
 c68:	d65f03c0 	ret
 c6c:	52800001 	mov	w1, #0x0                   	// #0
 c70:	2a0103e0 	mov	w0, w1
 c74:	d65f03c0 	ret

0000000000000c78 <pmd_free_pte_page>:
 c78:	f9400002 	ldr	x2, [x0]
 c7c:	92400442 	and	x2, x2, #0x3
 c80:	f1000c5f 	cmp	x2, #0x3
 c84:	54000060 	b.eq	c90 <pmd_free_pte_page+0x18>  // b.none
 c88:	52800020 	mov	w0, #0x1                   	// #1
 c8c:	d65f03c0 	ret
 c90:	a9bf7bfd 	stp	x29, x30, [sp, #-16]!
 c94:	910003fd 	mov	x29, sp
 c98:	97fffd2e 	bl	150 <pmd_free_pte_page.part.4>
 c9c:	52800020 	mov	w0, #0x1                   	// #1
 ca0:	a8c17bfd 	ldp	x29, x30, [sp], #16
 ca4:	d65f03c0 	ret

0000000000000ca8 <pud_free_pmd_page>:
 ca8:	f9400002 	ldr	x2, [x0]
 cac:	92400442 	and	x2, x2, #0x3
 cb0:	f1000c5f 	cmp	x2, #0x3
 cb4:	54000721 	b.ne	d98 <pud_free_pmd_page+0xf0>  // b.any
 cb8:	a9bb7bfd 	stp	x29, x30, [sp, #-80]!
 cbc:	910003fd 	mov	x29, sp
 cc0:	a90153f3 	stp	x19, x20, [sp, #16]
 cc4:	a9025bf5 	stp	x21, x22, [sp, #32]
 cc8:	aa0103f6 	mov	x22, x1
 ccc:	90000001 	adrp	x1, 0 <memstart_addr>
 cd0:	a90363f7 	stp	x23, x24, [sp, #48]
 cd4:	aa0003f7 	mov	x23, x0
 cd8:	d35576d8 	ubfx	x24, x22, #21, #9
 cdc:	f90023f9 	str	x25, [sp, #64]
 ce0:	d2a80015 	mov	x21, #0x40000000            	// #1073741824
 ce4:	f9400021 	ldr	x1, [x1]
 ce8:	8b1502d5 	add	x21, x22, x21
 cec:	f9400000 	ldr	x0, [x0]
 cf0:	aa1603f4 	mov	x20, x22
 cf4:	92748c00 	and	x0, x0, #0xfffffffff000
 cf8:	8b180c18 	add	x24, x0, x24, lsl #3
 cfc:	cb010318 	sub	x24, x24, x1
 d00:	b2514319 	orr	x25, x24, #0xffff800000000000
 d04:	aa1903f3 	mov	x19, x25
 d08:	14000005 	b	d1c <pud_free_pmd_page+0x74>
 d0c:	91480294 	add	x20, x20, #0x200, lsl #12
 d10:	91002273 	add	x19, x19, #0x8
 d14:	eb1402bf 	cmp	x21, x20
 d18:	54000180 	b.eq	d48 <pud_free_pmd_page+0xa0>  // b.none
 d1c:	f9400262 	ldr	x2, [x19]
 d20:	92400442 	and	x2, x2, #0x3
 d24:	f1000c5f 	cmp	x2, #0x3
 d28:	54ffff21 	b.ne	d0c <pud_free_pmd_page+0x64>  // b.any
 d2c:	aa1403e1 	mov	x1, x20
 d30:	aa1303e0 	mov	x0, x19
 d34:	91480294 	add	x20, x20, #0x200, lsl #12
 d38:	97fffd06 	bl	150 <pmd_free_pte_page.part.4>
 d3c:	91002273 	add	x19, x19, #0x8
 d40:	eb1402bf 	cmp	x21, x20
 d44:	54fffec1 	b.ne	d1c <pud_free_pmd_page+0x74>  // b.any
 d48:	d34cfec0 	lsr	x0, x22, #12
 d4c:	f90002ff 	str	xzr, [x23]
 d50:	d5033a9f 	dsb	ishst
 d54:	9240ac00 	and	x0, x0, #0xfffffffffff
 d58:	d5088360 	tlbi	vaae1is, x0
 d5c:	d503201f 	nop
 d60:	d503201f 	nop
 d64:	d5033b9f 	dsb	ish
 d68:	f2402f1f 	tst	x24, #0xfff
 d6c:	540001a1 	b.ne	da0 <pud_free_pmd_page+0xf8>  // b.any
 d70:	aa1903e0 	mov	x0, x25
 d74:	52800001 	mov	w1, #0x0                   	// #0
 d78:	94000000 	bl	0 <free_pages>
 d7c:	52800020 	mov	w0, #0x1                   	// #1
 d80:	a94153f3 	ldp	x19, x20, [sp, #16]
 d84:	a9425bf5 	ldp	x21, x22, [sp, #32]
 d88:	a94363f7 	ldp	x23, x24, [sp, #48]
 d8c:	f94023f9 	ldr	x25, [sp, #64]
 d90:	a8c57bfd 	ldp	x29, x30, [sp], #80
 d94:	d65f03c0 	ret
 d98:	52800020 	mov	w0, #0x1                   	// #1
 d9c:	d65f03c0 	ret
 da0:	d4210000 	brk	#0x800
 da4:	d503201f 	nop

0000000000000da8 <p4d_free_pud_page>:
 da8:	52800000 	mov	w0, #0x0                   	// #0
 dac:	d65f03c0 	ret

Disassembly of section .init.text:

0000000000000000 <parse_rodata>:
   0:	a9be7bfd 	stp	x29, x30, [sp, #-32]!
   4:	910003fd 	mov	x29, sp
   8:	a90153f3 	stp	x19, x20, [sp, #16]
   c:	90000013 	adrp	x19, 0 <rodata_enabled>
  10:	aa0003f4 	mov	x20, x0
  14:	91000261 	add	x1, x19, #0x0
  18:	94000000 	bl	0 <kstrtobool>
  1c:	35000080 	cbnz	w0, 2c <parse_rodata+0x2c>
  20:	90000001 	adrp	x1, 0 <rodata_full>
  24:	3900003f 	strb	wzr, [x1]
  28:	1400000c 	b	58 <parse_rodata+0x58>
  2c:	90000001 	adrp	x1, 0 <parse_rodata>
  30:	aa1403e0 	mov	x0, x20
  34:	91000021 	add	x1, x1, #0x0
  38:	94000000 	bl	0 <strcmp>
  3c:	350000c0 	cbnz	w0, 54 <parse_rodata+0x54>
  40:	90000002 	adrp	x2, 0 <rodata_full>
  44:	52800021 	mov	w1, #0x1                   	// #1
  48:	39000261 	strb	w1, [x19]
  4c:	39000041 	strb	w1, [x2]
  50:	14000002 	b	58 <parse_rodata+0x58>
  54:	128002a0 	mov	w0, #0xffffffea            	// #-22
  58:	a94153f3 	ldp	x19, x20, [sp, #16]
  5c:	a8c27bfd 	ldp	x29, x30, [sp], #32
  60:	d65f03c0 	ret

0000000000000064 <early_fixmap_init>:
  64:	a9be7bfd 	stp	x29, x30, [sp, #-32]!
  68:	90000000 	adrp	x0, 0 <parse_rodata>
  6c:	90000001 	adrp	x1, 0 <parse_rodata>
  70:	910003fd 	mov	x29, sp
  74:	a90153f3 	stp	x19, x20, [sp, #16]
  78:	90000013 	adrp	x19, 0 <init_mm>
  7c:	91000273 	add	x19, x19, #0x0
  80:	aa0003f4 	mov	x20, x0
  84:	91000021 	add	x1, x1, #0x0
  88:	f9400004 	ldr	x4, [x0]
  8c:	f9402263 	ldr	x3, [x19, #64]
  90:	f943ec60 	ldr	x0, [x3, #2008]
  94:	b40000c0 	cbz	x0, ac <early_fixmap_init+0x48>
  98:	92748c00 	and	x0, x0, #0xfffffffff000
  9c:	cb040021 	sub	x1, x1, x4
  a0:	eb00003f 	cmp	x1, x0
  a4:	540001c0 	b.eq	dc <early_fixmap_init+0x78>  // b.none
  a8:	d4210000 	brk	#0x800
  ac:	90000002 	adrp	x2, 0 <swapper_pg_dir>
  b0:	911f6060 	add	x0, x3, #0x7d8
  b4:	91000042 	add	x2, x2, #0x0
  b8:	ca020002 	eor	x2, x0, x2
  bc:	cb040021 	sub	x1, x1, x4
  c0:	f274cc5f 	tst	x2, #0xfffffffffffff000
  c4:	b2400421 	orr	x1, x1, #0x3
  c8:	54000061 	b.ne	d4 <early_fixmap_init+0x70>  // b.any
  cc:	94000000 	bl	360 <early_pgtable_alloc+0x9c>
  d0:	14000003 	b	dc <early_fixmap_init+0x78>
  d4:	f903ec61 	str	x1, [x3, #2008]
  d8:	d5033a9f 	dsb	ishst
  dc:	f9402260 	ldr	x0, [x19, #64]
  e0:	f943ec01 	ldr	x1, [x0, #2008]
  e4:	b4000a21 	cbz	x1, 228 <early_fixmap_init+0x1c4>
  e8:	36080a01 	tbz	w1, #1, 228 <early_fixmap_init+0x1c4>
  ec:	f9400283 	ldr	x3, [x20]
  f0:	f943ec01 	ldr	x1, [x0, #2008]
  f4:	913fe062 	add	x2, x3, #0xff8
  f8:	92748c21 	and	x1, x1, #0xfffffffff000
  fc:	f8626820 	ldr	x0, [x1, x2]
 100:	b50000e0 	cbnz	x0, 11c <early_fixmap_init+0xb8>
 104:	90000000 	adrp	x0, 0 <parse_rodata>
 108:	91000000 	add	x0, x0, #0x0
 10c:	cb030000 	sub	x0, x0, x3
 110:	b2400400 	orr	x0, x0, #0x3
 114:	f8226820 	str	x0, [x1, x2]
 118:	d5033a9f 	dsb	ishst
 11c:	f9402260 	ldr	x0, [x19, #64]
 120:	f943ec01 	ldr	x1, [x0, #2008]
 124:	b4000821 	cbz	x1, 228 <early_fixmap_init+0x1c4>
 128:	36080801 	tbz	w1, #1, 228 <early_fixmap_init+0x1c4>
 12c:	f9400283 	ldr	x3, [x20]
 130:	f943ec01 	ldr	x1, [x0, #2008]
 134:	913fe060 	add	x0, x3, #0xff8
 138:	92748c21 	and	x1, x1, #0xfffffffff000
 13c:	f8606822 	ldr	x2, [x1, x0]
 140:	b4000802 	cbz	x2, 240 <early_fixmap_init+0x1dc>
 144:	360807e2 	tbz	w2, #1, 240 <early_fixmap_init+0x1dc>
 148:	f8606822 	ldr	x2, [x1, x0]
 14c:	913e6064 	add	x4, x3, #0xf98
 150:	90000000 	adrp	x0, 0 <parse_rodata>
 154:	91000000 	add	x0, x0, #0x0
 158:	92748c42 	and	x2, x2, #0xfffffffff000
 15c:	cb030000 	sub	x0, x0, x3
 160:	8b040041 	add	x1, x2, x4
 164:	b2400400 	orr	x0, x0, #0x3
 168:	f8246840 	str	x0, [x2, x4]
 16c:	d5033a9f 	dsb	ishst
 170:	f9402265 	ldr	x5, [x19, #64]
 174:	f943eca0 	ldr	x0, [x5, #2008]
 178:	b4000580 	cbz	x0, 228 <early_fixmap_init+0x1c4>
 17c:	36080560 	tbz	w0, #1, 228 <early_fixmap_init+0x1c4>
 180:	f9400280 	ldr	x0, [x20]
 184:	f943eca2 	ldr	x2, [x5, #2008]
 188:	913fe004 	add	x4, x0, #0xff8
 18c:	92748c42 	and	x2, x2, #0xfffffffff000
 190:	f8646843 	ldr	x3, [x2, x4]
 194:	b4000563 	cbz	x3, 240 <early_fixmap_init+0x1dc>
 198:	36080543 	tbz	w3, #1, 240 <early_fixmap_init+0x1dc>
 19c:	f8646843 	ldr	x3, [x2, x4]
 1a0:	913e6002 	add	x2, x0, #0xf98
 1a4:	92748c60 	and	x0, x3, #0xfffffffff000
 1a8:	8b020000 	add	x0, x0, x2
 1ac:	eb00003f 	cmp	x1, x0
 1b0:	540001c1 	b.ne	1e8 <early_fixmap_init+0x184>  // b.any
 1b4:	f943eca0 	ldr	x0, [x5, #2008]
 1b8:	b4000380 	cbz	x0, 228 <early_fixmap_init+0x1c4>
 1bc:	36080360 	tbz	w0, #1, 228 <early_fixmap_init+0x1c4>
 1c0:	f943eca0 	ldr	x0, [x5, #2008]
 1c4:	92748c00 	and	x0, x0, #0xfffffffff000
 1c8:	f8646803 	ldr	x3, [x0, x4]
 1cc:	b40003a3 	cbz	x3, 240 <early_fixmap_init+0x1dc>
 1d0:	36080383 	tbz	w3, #1, 240 <early_fixmap_init+0x1dc>
 1d4:	f8646800 	ldr	x0, [x0, x4]
 1d8:	92748c00 	and	x0, x0, #0xfffffffff000
 1dc:	8b020000 	add	x0, x0, x2
 1e0:	eb00003f 	cmp	x1, x0
 1e4:	540006a0 	b.eq	2b8 <early_fixmap_init+0x254>  // b.none
 1e8:	d4210000 	brk	#0x800
 1ec:	f9402264 	ldr	x4, [x19, #64]
 1f0:	f943ec80 	ldr	x0, [x4, #2008]
 1f4:	b40001a0 	cbz	x0, 228 <early_fixmap_init+0x1c4>
 1f8:	36080180 	tbz	w0, #1, 228 <early_fixmap_init+0x1c4>
 1fc:	f9400280 	ldr	x0, [x20]
 200:	f943ec82 	ldr	x2, [x4, #2008]
 204:	913fe003 	add	x3, x0, #0xff8
 208:	92748c42 	and	x2, x2, #0xfffffffff000
 20c:	f8636845 	ldr	x5, [x2, x3]
 210:	b4000185 	cbz	x5, 240 <early_fixmap_init+0x1dc>
 214:	36080165 	tbz	w5, #1, 240 <early_fixmap_init+0x1dc>
 218:	f8636842 	ldr	x2, [x2, x3]
 21c:	f943ec85 	ldr	x5, [x4, #2008]
 220:	b4000045 	cbz	x5, 228 <early_fixmap_init+0x1c4>
 224:	37080045 	tbnz	w5, #1, 22c <early_fixmap_init+0x1c8>
 228:	d4210000 	brk	#0x800
 22c:	f943ec84 	ldr	x4, [x4, #2008]
 230:	92748c84 	and	x4, x4, #0xfffffffff000
 234:	f8636885 	ldr	x5, [x4, x3]
 238:	b4000045 	cbz	x5, 240 <early_fixmap_init+0x1dc>
 23c:	37080045 	tbnz	w5, #1, 244 <early_fixmap_init+0x1e0>
 240:	d4210000 	brk	#0x800
 244:	f8636883 	ldr	x3, [x4, x3]
 248:	913e6000 	add	x0, x0, #0xf98
 24c:	92748c42 	and	x2, x2, #0xfffffffff000
 250:	92748c63 	and	x3, x3, #0xfffffffff000
 254:	8b000042 	add	x2, x2, x0
 258:	8b000063 	add	x3, x3, x0
 25c:	90000000 	adrp	x0, 0 <parse_rodata>
 260:	91000000 	add	x0, x0, #0x0
 264:	94000000 	bl	0 <printk>
 268:	928bffe1 	mov	x1, #0xffffffffffffa000    	// #-24576
 26c:	90000000 	adrp	x0, 0 <parse_rodata>
 270:	f2bfcc61 	movk	x1, #0xfe63, lsl #16
 274:	91000000 	add	x0, x0, #0x0
 278:	f2cfbfe1 	movk	x1, #0x7dff, lsl #32
 27c:	94000000 	bl	0 <printk>
 280:	928dffe1 	mov	x1, #0xffffffffffff9000    	// #-28672
 284:	90000000 	adrp	x0, 0 <parse_rodata>
 288:	f2bfcfe1 	movk	x1, #0xfe7f, lsl #16
 28c:	91000000 	add	x0, x0, #0x0
 290:	f2cfbfe1 	movk	x1, #0x7dff, lsl #32
 294:	94000000 	bl	0 <printk>
 298:	528080e1 	mov	w1, #0x407                 	// #1031
 29c:	90000000 	adrp	x0, 0 <parse_rodata>
 2a0:	91000000 	add	x0, x0, #0x0
 2a4:	94000000 	bl	0 <printk>
 2a8:	90000000 	adrp	x0, 0 <parse_rodata>
 2ac:	5280b8c1 	mov	w1, #0x5c6                 	// #1478
 2b0:	91000000 	add	x0, x0, #0x0
 2b4:	94000000 	bl	0 <printk>
 2b8:	a94153f3 	ldp	x19, x20, [sp, #16]
 2bc:	a8c27bfd 	ldp	x29, x30, [sp], #32
 2c0:	d65f03c0 	ret

00000000000002c4 <early_pgtable_alloc>:
 2c4:	a9be7bfd 	stp	x29, x30, [sp, #-32]!
 2c8:	d2820001 	mov	x1, #0x1000                	// #4096
 2cc:	d2800003 	mov	x3, #0x0                   	// #0
 2d0:	910003fd 	mov	x29, sp
 2d4:	aa0103e0 	mov	x0, x1
 2d8:	d2800002 	mov	x2, #0x0                   	// #0
 2dc:	f9000bf3 	str	x19, [sp, #16]
 2e0:	94000000 	bl	0 <memblock_phys_alloc_range>
 2e4:	b5000080 	cbnz	x0, 2f4 <early_pgtable_alloc+0x30>
 2e8:	90000000 	adrp	x0, 0 <parse_rodata>
 2ec:	91000000 	add	x0, x0, #0x0
 2f0:	94000000 	bl	0 <panic>
 2f4:	aa0003f3 	mov	x19, x0
 2f8:	14000002 	b	300 <early_pgtable_alloc+0x3c>
 2fc:	1400000a 	b	324 <early_pgtable_alloc+0x60>
 300:	90000001 	adrp	x1, 0 <cpu_hwcaps>
 304:	d280e262 	mov	x2, #0x713                 	// #1811
 308:	d281e260 	mov	x0, #0xf13                 	// #3859
 30c:	f2e01d02 	movk	x2, #0xe8, lsl #48
 310:	f9400021 	ldr	x1, [x1]
 314:	f2e01d00 	movk	x0, #0xe8, lsl #48
 318:	7209003f 	tst	w1, #0x800000
 31c:	9a800042 	csel	x2, x2, x0, eq  // eq = none
 320:	14000007 	b	33c <early_pgtable_alloc+0x78>
 324:	d503201f 	nop
 328:	d280e262 	mov	x2, #0x713                 	// #1811
 32c:	f2e01d02 	movk	x2, #0xe8, lsl #48
 330:	14000003 	b	33c <early_pgtable_alloc+0x78>
 334:	d281e262 	mov	x2, #0xf13                 	// #3859
 338:	f2e01d02 	movk	x2, #0xe8, lsl #48
 33c:	aa1303e1 	mov	x1, x19
 340:	5280b8e0 	mov	w0, #0x5c7                 	// #1479
 344:	94000000 	bl	2a8 <early_fixmap_init+0x244>
 348:	928dffe0 	mov	x0, #0xffffffffffff9000    	// #-28672
 34c:	92402e61 	and	x1, x19, #0xfff
 350:	f2bfcc60 	movk	x0, #0xfe63, lsl #16
 354:	d2820002 	mov	x2, #0x1000                	// #4096
 358:	f2cfbfe0 	movk	x0, #0x7dff, lsl #32
 35c:	8b000020 	add	x0, x1, x0
 360:	52800001 	mov	w1, #0x0                   	// #0
 364:	94000000 	bl	0 <memset>
 368:	d2800002 	mov	x2, #0x0                   	// #0
 36c:	d2800001 	mov	x1, #0x0                   	// #0
 370:	5280b8e0 	mov	w0, #0x5c7                 	// #1479
 374:	94000000 	bl	2a8 <early_fixmap_init+0x244>
 378:	aa1303e0 	mov	x0, x19
 37c:	f9400bf3 	ldr	x19, [sp, #16]
 380:	a8c27bfd 	ldp	x29, x30, [sp], #32
 384:	d65f03c0 	ret

0000000000000388 <arch_ioremap_pud_supported>:
 388:	52800020 	mov	w0, #0x1                   	// #1
 38c:	d65f03c0 	ret

0000000000000390 <arch_ioremap_pmd_supported>:
 390:	52800020 	mov	w0, #0x1                   	// #1
 394:	d65f03c0 	ret

0000000000000398 <create_pgd_mapping>:
 398:	a9bf7bfd 	stp	x29, x30, [sp, #-16]!
 39c:	90000006 	adrp	x6, 0 <init_mm>
 3a0:	910000c6 	add	x6, x6, #0x0
 3a4:	910003fd 	mov	x29, sp
 3a8:	eb06001f 	cmp	x0, x6
 3ac:	54000041 	b.ne	3b4 <create_pgd_mapping+0x1c>  // b.any
 3b0:	d4210000 	brk	#0x800
 3b4:	12001ca5 	and	w5, w5, #0xff
 3b8:	52800066 	mov	w6, #0x3                   	// #3
 3bc:	f9402000 	ldr	x0, [x0, #64]
 3c0:	710000bf 	cmp	w5, #0x0
 3c4:	1a9f10c6 	csel	w6, w6, wzr, ne  // ne = any
 3c8:	90000005 	adrp	x5, 0 <parse_rodata>
 3cc:	910000a5 	add	x5, x5, #0x0
 3d0:	94000000 	bl	0 <parse_rodata>
 3d4:	a8c17bfd 	ldp	x29, x30, [sp], #16
 3d8:	d65f03c0 	ret

00000000000003dc <mark_linear_text_alias_ro>:
 3dc:	a9bf7bfd 	stp	x29, x30, [sp, #-16]!
 3e0:	90000000 	adrp	x0, 0 <parse_rodata>
 3e4:	90000001 	adrp	x1, 0 <memstart_addr>
 3e8:	910003fd 	mov	x29, sp
 3ec:	f9400004 	ldr	x4, [x0]
 3f0:	90000002 	adrp	x2, 0 <_text>
 3f4:	f9400021 	ldr	x1, [x1]
 3f8:	91000043 	add	x3, x2, #0x0
 3fc:	aa0303e0 	mov	x0, x3
 400:	90000002 	adrp	x2, 0 <__init_begin>
 404:	8b010081 	add	x1, x4, x1
 408:	91000042 	add	x2, x2, #0x0
 40c:	cb010001 	sub	x1, x0, x1
 410:	cb030042 	sub	x2, x2, x3
 414:	cb040000 	sub	x0, x0, x4
 418:	b2514021 	orr	x1, x1, #0xffff800000000000
 41c:	14000002 	b	424 <mark_linear_text_alias_ro+0x48>
 420:	1400000a 	b	448 <mark_linear_text_alias_ro+0x6c>
 424:	90000005 	adrp	x5, 0 <cpu_hwcaps>
 428:	d280f263 	mov	x3, #0x793                 	// #1939
 42c:	d281f264 	mov	x4, #0xf93                 	// #3987
 430:	f2e01c03 	movk	x3, #0xe0, lsl #48
 434:	f94000a5 	ldr	x5, [x5]
 438:	f2e01c04 	movk	x4, #0xe0, lsl #48
 43c:	720900bf 	tst	w5, #0x800000
 440:	9a840063 	csel	x3, x3, x4, eq  // eq = none
 444:	14000007 	b	460 <mark_linear_text_alias_ro+0x84>
 448:	d503201f 	nop
 44c:	d280f263 	mov	x3, #0x793                 	// #1939
 450:	f2e01c03 	movk	x3, #0xe0, lsl #48
 454:	14000003 	b	460 <mark_linear_text_alias_ro+0x84>
 458:	d281f263 	mov	x3, #0xf93                 	// #3987
 45c:	f2e01c03 	movk	x3, #0xe0, lsl #48
 460:	94000000 	bl	0 <parse_rodata>
 464:	a8c17bfd 	ldp	x29, x30, [sp], #16
 468:	d65f03c0 	ret

000000000000046c <map_entry_trampoline>:
 46c:	a9be7bfd 	stp	x29, x30, [sp, #-32]!
 470:	90000000 	adrp	x0, 0 <rodata_enabled>
 474:	910003fd 	mov	x29, sp
 478:	39400000 	ldrb	w0, [x0]
 47c:	a90153f3 	stp	x19, x20, [sp, #16]
 480:	34000200 	cbz	w0, 4c0 <map_entry_trampoline+0x54>
 484:	14000002 	b	48c <map_entry_trampoline+0x20>
 488:	1400000a 	b	4b0 <map_entry_trampoline+0x44>
 48c:	90000001 	adrp	x1, 0 <cpu_hwcaps>
 490:	d280f262 	mov	x2, #0x793                 	// #1939
 494:	d281f260 	mov	x0, #0xf93                 	// #3987
 498:	f2e01802 	movk	x2, #0xc0, lsl #48
 49c:	f9400021 	ldr	x1, [x1]
 4a0:	f2e01800 	movk	x0, #0xc0, lsl #48
 4a4:	7209003f 	tst	w1, #0x800000
 4a8:	9a800042 	csel	x2, x2, x0, eq  // eq = none
 4ac:	14000019 	b	510 <map_entry_trampoline+0xa4>
 4b0:	d503201f 	nop
 4b4:	d280f262 	mov	x2, #0x793                 	// #1939
 4b8:	f2e01802 	movk	x2, #0xc0, lsl #48
 4bc:	14000015 	b	510 <map_entry_trampoline+0xa4>
 4c0:	14000002 	b	4c8 <map_entry_trampoline+0x5c>
 4c4:	1400000a 	b	4ec <map_entry_trampoline+0x80>
 4c8:	90000001 	adrp	x1, 0 <cpu_hwcaps>
 4cc:	d280e262 	mov	x2, #0x713                 	// #1811
 4d0:	d281e260 	mov	x0, #0xf13                 	// #3859
 4d4:	f2e01902 	movk	x2, #0xc8, lsl #48
 4d8:	f9400021 	ldr	x1, [x1]
 4dc:	f2e01900 	movk	x0, #0xc8, lsl #48
 4e0:	7209003f 	tst	w1, #0x800000
 4e4:	9a800042 	csel	x2, x2, x0, eq  // eq = none
 4e8:	1400000a 	b	510 <map_entry_trampoline+0xa4>
 4ec:	d503201f 	nop
 4f0:	d280e262 	mov	x2, #0x713                 	// #1811
 4f4:	f2e01902 	movk	x2, #0xc8, lsl #48
 4f8:	14000006 	b	510 <map_entry_trampoline+0xa4>
 4fc:	d281f262 	mov	x2, #0xf93                 	// #3987
 500:	f2e01802 	movk	x2, #0xc0, lsl #48
 504:	14000003 	b	510 <map_entry_trampoline+0xa4>
 508:	d281e262 	mov	x2, #0xf13                 	// #3859
 50c:	f2e01902 	movk	x2, #0xc8, lsl #48
 510:	90000000 	adrp	x0, 0 <parse_rodata>
 514:	90000007 	adrp	x7, 0 <tramp_pg_dir>
 518:	910000e7 	add	x7, x7, #0x0
 51c:	9274f853 	and	x19, x2, #0xfffffffffffff7ff
 520:	f9400014 	ldr	x20, [x0]
 524:	d2820002 	mov	x2, #0x1000                	// #4096
 528:	aa0703e0 	mov	x0, x7
 52c:	52800001 	mov	w1, #0x0                   	// #0
 530:	90000003 	adrp	x3, 0 <__entry_tramp_text_start>
 534:	91000063 	add	x3, x3, #0x0
 538:	cb140074 	sub	x20, x3, x20
 53c:	94000000 	bl	0 <memset>
 540:	aa1303e4 	mov	x4, x19
 544:	90000005 	adrp	x5, 0 <parse_rodata>
 548:	928bffe2 	mov	x2, #0xffffffffffffa000    	// #-24576
 54c:	910000a5 	add	x5, x5, #0x0
 550:	52800006 	mov	w6, #0x0                   	// #0
 554:	d2820003 	mov	x3, #0x1000                	// #4096
 558:	f2bfcfe2 	movk	x2, #0xfe7f, lsl #16
 55c:	aa1403e1 	mov	x1, x20
 560:	f2cfbfe2 	movk	x2, #0x7dff, lsl #32
 564:	94000000 	bl	0 <parse_rodata>
 568:	aa1303e2 	mov	x2, x19
 56c:	aa1403e1 	mov	x1, x20
 570:	528080c0 	mov	w0, #0x406                 	// #1030
 574:	94000000 	bl	2a8 <early_fixmap_init+0x244>
 578:	52800000 	mov	w0, #0x0                   	// #0
 57c:	a94153f3 	ldp	x19, x20, [sp, #16]
 580:	a8c27bfd 	ldp	x29, x30, [sp], #32
 584:	d65f03c0 	ret

0000000000000588 <map_kernel_segment>:
 588:	a9bc7bfd 	stp	x29, x30, [sp, #-64]!
 58c:	90000007 	adrp	x7, 0 <parse_rodata>
 590:	910003fd 	mov	x29, sp
 594:	a90363f7 	stp	x23, x24, [sp, #48]
 598:	cb010057 	sub	x23, x2, x1
 59c:	f94000e2 	ldr	x2, [x7]
 5a0:	a90153f3 	stp	x19, x20, [sp, #16]
 5a4:	aa0103f4 	mov	x20, x1
 5a8:	cb020294 	sub	x20, x20, x2
 5ac:	a9025bf5 	stp	x21, x22, [sp, #32]
 5b0:	f2402e9f 	tst	x20, #0xfff
 5b4:	54000040 	b.eq	5bc <map_kernel_segment+0x34>  // b.none
 5b8:	d4210000 	brk	#0x800
 5bc:	f2402eff 	tst	x23, #0xfff
 5c0:	54000040 	b.eq	5c8 <map_kernel_segment+0x40>  // b.none
 5c4:	d4210000 	brk	#0x800
 5c8:	aa0603f5 	mov	x21, x6
 5cc:	aa0403f3 	mov	x19, x4
 5d0:	2a0503e6 	mov	w6, w5
 5d4:	aa0303e4 	mov	x4, x3
 5d8:	aa0103f6 	mov	x22, x1
 5dc:	90000005 	adrp	x5, 0 <parse_rodata>
 5e0:	aa0103e2 	mov	x2, x1
 5e4:	aa1e03f8 	mov	x24, x30
 5e8:	aa1703e3 	mov	x3, x23
 5ec:	910000a5 	add	x5, x5, #0x0
 5f0:	aa1403e1 	mov	x1, x20
 5f4:	94000000 	bl	0 <parse_rodata>
 5f8:	b5000055 	cbnz	x21, 600 <map_kernel_segment+0x78>
 5fc:	914006f7 	add	x23, x23, #0x1, lsl #12
 600:	b27e02b5 	orr	x21, x21, #0x4
 604:	a900de76 	stp	x22, x23, [x19, #8]
 608:	aa1303e0 	mov	x0, x19
 60c:	f9000e75 	str	x21, [x19, #24]
 610:	a9036274 	stp	x20, x24, [x19, #48]
 614:	94000000 	bl	0 <vm_area_add_early>
 618:	a94153f3 	ldp	x19, x20, [sp, #16]
 61c:	a9425bf5 	ldp	x21, x22, [sp, #32]
 620:	a94363f7 	ldp	x23, x24, [sp, #48]
 624:	a8c47bfd 	ldp	x29, x30, [sp], #64
 628:	d65f03c0 	ret

000000000000062c <__map_memblock>:
 62c:	a9bf7bfd 	stp	x29, x30, [sp, #-16]!
 630:	90000008 	adrp	x8, 0 <memstart_addr>
 634:	2a0403e6 	mov	w6, w4
 638:	910003fd 	mov	x29, sp
 63c:	f9400108 	ldr	x8, [x8]
 640:	aa0303e4 	mov	x4, x3
 644:	cb010043 	sub	x3, x2, x1
 648:	90000005 	adrp	x5, 0 <parse_rodata>
 64c:	cb080022 	sub	x2, x1, x8
 650:	910000a5 	add	x5, x5, #0x0
 654:	b2514042 	orr	x2, x2, #0xffff800000000000
 658:	94000000 	bl	0 <parse_rodata>
 65c:	a8c17bfd 	ldp	x29, x30, [sp], #16
 660:	d65f03c0 	ret

0000000000000664 <paging_init>:
 664:	a9b87bfd 	stp	x29, x30, [sp, #-128]!
 668:	90000000 	adrp	x0, 0 <parse_rodata>
 66c:	910003fd 	mov	x29, sp
 670:	a9025bf5 	stp	x21, x22, [sp, #32]
 674:	aa0003f6 	mov	x22, x0
 678:	f9400000 	ldr	x0, [x0]
 67c:	a90153f3 	stp	x19, x20, [sp, #16]
 680:	90000014 	adrp	x20, 0 <swapper_pg_dir>
 684:	91000294 	add	x20, x20, #0x0
 688:	a90363f7 	stp	x23, x24, [sp, #48]
 68c:	aa1403e1 	mov	x1, x20
 690:	cb000021 	sub	x1, x1, x0
 694:	a9046bf9 	stp	x25, x26, [sp, #64]
 698:	aa1403fa 	mov	x26, x20
 69c:	a90573fb 	stp	x27, x28, [sp, #80]
 6a0:	14000002 	b	6a8 <paging_init+0x44>
 6a4:	1400000a 	b	6cc <paging_init+0x68>
 6a8:	90000003 	adrp	x3, 0 <cpu_hwcaps>
 6ac:	d280e262 	mov	x2, #0x713                 	// #1811
 6b0:	d281e260 	mov	x0, #0xf13                 	// #3859
 6b4:	f2e01d02 	movk	x2, #0xe8, lsl #48
 6b8:	f9400063 	ldr	x3, [x3]
 6bc:	f2e01d00 	movk	x0, #0xe8, lsl #48
 6c0:	7209007f 	tst	w3, #0x800000
 6c4:	9a800042 	csel	x2, x2, x0, eq  // eq = none
 6c8:	14000007 	b	6e4 <paging_init+0x80>
 6cc:	d503201f 	nop
 6d0:	d280e262 	mov	x2, #0x713                 	// #1811
 6d4:	f2e01d02 	movk	x2, #0xe8, lsl #48
 6d8:	14000003 	b	6e4 <paging_init+0x80>
 6dc:	d281e262 	mov	x2, #0xf13                 	// #3859
 6e0:	f2e01d02 	movk	x2, #0xe8, lsl #48
 6e4:	5280b940 	mov	w0, #0x5ca                 	// #1482
 6e8:	94000000 	bl	2a8 <early_fixmap_init+0x244>
 6ec:	90000001 	adrp	x1, 0 <rodata_enabled>
 6f0:	aa1403f3 	mov	x19, x20
 6f4:	f94002c0 	ldr	x0, [x22]
 6f8:	39400021 	ldrb	w1, [x1]
 6fc:	34000261 	cbz	w1, 748 <paging_init+0xe4>
 700:	14000002 	b	708 <paging_init+0xa4>
 704:	1400000a 	b	72c <paging_init+0xc8>
 708:	90000002 	adrp	x2, 0 <cpu_hwcaps>
 70c:	d280f277 	mov	x23, #0x793                 	// #1939
 710:	d281f261 	mov	x1, #0xf93                 	// #3987
 714:	f2e01817 	movk	x23, #0xc0, lsl #48
 718:	f9400042 	ldr	x2, [x2]
 71c:	f2e01801 	movk	x1, #0xc0, lsl #48
 720:	7209005f 	tst	w2, #0x800000
 724:	9a8102f7 	csel	x23, x23, x1, eq  // eq = none
 728:	14000019 	b	78c <paging_init+0x128>
 72c:	d503201f 	nop
 730:	d280f277 	mov	x23, #0x793                 	// #1939
 734:	f2e01817 	movk	x23, #0xc0, lsl #48
 738:	14000015 	b	78c <paging_init+0x128>
 73c:	d281f277 	mov	x23, #0xf93                 	// #3987
 740:	f2e01817 	movk	x23, #0xc0, lsl #48
 744:	14000012 	b	78c <paging_init+0x128>
 748:	14000002 	b	750 <paging_init+0xec>
 74c:	1400000a 	b	774 <paging_init+0x110>
 750:	90000002 	adrp	x2, 0 <cpu_hwcaps>
 754:	d280e277 	mov	x23, #0x713                 	// #1811
 758:	d281e261 	mov	x1, #0xf13                 	// #3859
 75c:	f2e01917 	movk	x23, #0xc8, lsl #48
 760:	f9400042 	ldr	x2, [x2]
 764:	f2e01901 	movk	x1, #0xc8, lsl #48
 768:	7209005f 	tst	w2, #0x800000
 76c:	9a8102f7 	csel	x23, x23, x1, eq  // eq = none
 770:	14000007 	b	78c <paging_init+0x128>
 774:	d503201f 	nop
 778:	d280e277 	mov	x23, #0x713                 	// #1811
 77c:	f2e01917 	movk	x23, #0xc8, lsl #48
 780:	14000003 	b	78c <paging_init+0x128>
 784:	d281e277 	mov	x23, #0xf13                 	// #3859
 788:	f2e01917 	movk	x23, #0xc8, lsl #48
 78c:	cb000273 	sub	x19, x19, x0
 790:	9293ffe0 	mov	x0, #0xffffffffffff6000    	// #-40960
 794:	f2bfcc60 	movk	x0, #0xfe63, lsl #16
 798:	92402e73 	and	x19, x19, #0xfff
 79c:	f2cfbfe0 	movk	x0, #0x7dff, lsl #32
 7a0:	90000018 	adrp	x24, 0 <parse_rodata>
 7a4:	8b000273 	add	x19, x19, x0
 7a8:	91000318 	add	x24, x24, #0x0
 7ac:	90000015 	adrp	x21, 0 <_text>
 7b0:	910002b5 	add	x21, x21, #0x0
 7b4:	aa1303e0 	mov	x0, x19
 7b8:	91002304 	add	x4, x24, #0x8
 7bc:	aa1503e1 	mov	x1, x21
 7c0:	90000002 	adrp	x2, 0 <_etext>
 7c4:	d2800806 	mov	x6, #0x40                  	// #64
 7c8:	91000042 	add	x2, x2, #0x0
 7cc:	52800005 	mov	w5, #0x0                   	// #0
 7d0:	aa1703e3 	mov	x3, x23
 7d4:	97ffff6d 	bl	588 <map_kernel_segment>
 7d8:	14000002 	b	7e0 <paging_init+0x17c>
 7dc:	1400000a 	b	804 <paging_init+0x1a0>
 7e0:	90000001 	adrp	x1, 0 <cpu_hwcaps>
 7e4:	d280e263 	mov	x3, #0x713                 	// #1811
 7e8:	d281e260 	mov	x0, #0xf13                 	// #3859
 7ec:	f2e01d03 	movk	x3, #0xe8, lsl #48
 7f0:	f9400021 	ldr	x1, [x1]
 7f4:	f2e01d00 	movk	x0, #0xe8, lsl #48
 7f8:	7209003f 	tst	w1, #0x800000
 7fc:	9a800063 	csel	x3, x3, x0, eq  // eq = none
 800:	14000007 	b	81c <paging_init+0x1b8>
 804:	d503201f 	nop
 808:	d280e263 	mov	x3, #0x713                 	// #1811
 80c:	f2e01d03 	movk	x3, #0xe8, lsl #48
 810:	14000003 	b	81c <paging_init+0x1b8>
 814:	d281e263 	mov	x3, #0xf13                 	// #3859
 818:	f2e01d03 	movk	x3, #0xe8, lsl #48
 81c:	90000019 	adrp	x25, 0 <__inittext_begin>
 820:	91000339 	add	x25, x25, #0x0
 824:	aa1903e2 	mov	x2, x25
 828:	91012304 	add	x4, x24, #0x48
 82c:	aa1303e0 	mov	x0, x19
 830:	d2800806 	mov	x6, #0x40                  	// #64
 834:	52800045 	mov	w5, #0x2                   	// #2
 838:	90000001 	adrp	x1, 0 <__start_rodata>
 83c:	91000021 	add	x1, x1, #0x0
 840:	97ffff52 	bl	588 <map_kernel_segment>
 844:	90000002 	adrp	x2, 0 <__inittext_end>
 848:	aa1903e1 	mov	x1, x25
 84c:	aa1703e3 	mov	x3, x23
 850:	91000042 	add	x2, x2, #0x0
 854:	d2800806 	mov	x6, #0x40                  	// #64
 858:	52800005 	mov	w5, #0x0                   	// #0
 85c:	91022304 	add	x4, x24, #0x88
 860:	aa1303e0 	mov	x0, x19
 864:	97ffff49 	bl	588 <map_kernel_segment>
 868:	14000002 	b	870 <paging_init+0x20c>
 86c:	1400000a 	b	894 <paging_init+0x230>
 870:	90000001 	adrp	x1, 0 <cpu_hwcaps>
 874:	d280e263 	mov	x3, #0x713                 	// #1811
 878:	d281e260 	mov	x0, #0xf13                 	// #3859
 87c:	f2e01d03 	movk	x3, #0xe8, lsl #48
 880:	f9400021 	ldr	x1, [x1]
 884:	f2e01d00 	movk	x0, #0xe8, lsl #48
 888:	7209003f 	tst	w1, #0x800000
 88c:	9a800063 	csel	x3, x3, x0, eq  // eq = none
 890:	14000007 	b	8ac <paging_init+0x248>
 894:	d503201f 	nop
 898:	d280e263 	mov	x3, #0x713                 	// #1811
 89c:	f2e01d03 	movk	x3, #0xe8, lsl #48
 8a0:	14000003 	b	8ac <paging_init+0x248>
 8a4:	d281e263 	mov	x3, #0xf13                 	// #3859
 8a8:	f2e01d03 	movk	x3, #0xe8, lsl #48
 8ac:	90000002 	adrp	x2, 0 <__initdata_end>
 8b0:	90000001 	adrp	x1, 0 <__initdata_begin>
 8b4:	91000042 	add	x2, x2, #0x0
 8b8:	91000021 	add	x1, x1, #0x0
 8bc:	d2800806 	mov	x6, #0x40                  	// #64
 8c0:	52800005 	mov	w5, #0x0                   	// #0
 8c4:	91032304 	add	x4, x24, #0xc8
 8c8:	aa1303e0 	mov	x0, x19
 8cc:	97ffff2f 	bl	588 <map_kernel_segment>
 8d0:	14000002 	b	8d8 <paging_init+0x274>
 8d4:	1400000a 	b	8fc <paging_init+0x298>
 8d8:	90000001 	adrp	x1, 0 <cpu_hwcaps>
 8dc:	d280e263 	mov	x3, #0x713                 	// #1811
 8e0:	d281e260 	mov	x0, #0xf13                 	// #3859
 8e4:	f2e01d03 	movk	x3, #0xe8, lsl #48
 8e8:	f9400021 	ldr	x1, [x1]
 8ec:	f2e01d00 	movk	x0, #0xe8, lsl #48
 8f0:	7209003f 	tst	w1, #0x800000
 8f4:	9a800063 	csel	x3, x3, x0, eq  // eq = none
 8f8:	14000007 	b	914 <paging_init+0x2b0>
 8fc:	d503201f 	nop
 900:	d280e263 	mov	x3, #0x713                 	// #1811
 904:	f2e01d03 	movk	x3, #0xe8, lsl #48
 908:	14000003 	b	914 <paging_init+0x2b0>
 90c:	d281e263 	mov	x3, #0xf13                 	// #3859
 910:	f2e01d03 	movk	x3, #0xe8, lsl #48
 914:	aa1303e0 	mov	x0, x19
 918:	91042304 	add	x4, x24, #0x108
 91c:	90000002 	adrp	x2, 0 <_end>
 920:	90000001 	adrp	x1, 0 <_data>
 924:	91000042 	add	x2, x2, #0x0
 928:	91000021 	add	x1, x1, #0x0
 92c:	d2800006 	mov	x6, #0x0                   	// #0
 930:	52800005 	mov	w5, #0x0                   	// #0
 934:	97ffff15 	bl	588 <map_kernel_segment>
 938:	f943ee60 	ldr	x0, [x19, #2008]
 93c:	b50004a0 	cbnz	x0, 9d0 <paging_init+0x36c>
 940:	90000018 	adrp	x24, 0 <init_mm>
 944:	91000318 	add	x24, x24, #0x0
 948:	911f6260 	add	x0, x19, #0x7d8
 94c:	ca140002 	eor	x2, x0, x20
 950:	f9402301 	ldr	x1, [x24, #64]
 954:	f274cc5f 	tst	x2, #0xfffffffffffff000
 958:	f943ec21 	ldr	x1, [x1, #2008]
 95c:	54000061 	b.ne	968 <paging_init+0x304>  // b.any
 960:	94000000 	bl	360 <early_pgtable_alloc+0x9c>
 964:	14000003 	b	970 <paging_init+0x30c>
 968:	f903ee61 	str	x1, [x19, #2008]
 96c:	d5033a9f 	dsb	ishst
 970:	90000000 	adrp	x0, 0 <rodata_full>
 974:	52800062 	mov	w2, #0x3                   	// #3
 978:	f94002c1 	ldr	x1, [x22]
 97c:	90000019 	adrp	x25, 0 <crashk_res>
 980:	39400000 	ldrb	w0, [x0]
 984:	9100033b 	add	x27, x25, #0x0
 988:	7100001f 	cmp	w0, #0x0
 98c:	cb0102bc 	sub	x28, x21, x1
 990:	1a9f1042 	csel	w2, w2, wzr, ne  // ne = any
 994:	90000017 	adrp	x23, 0 <__init_begin>
 998:	910002f7 	add	x23, x23, #0x0
 99c:	aa1c03e0 	mov	x0, x28
 9a0:	cb1502f5 	sub	x21, x23, x21
 9a4:	f90037e1 	str	x1, [sp, #104]
 9a8:	aa1503e1 	mov	x1, x21
 9ac:	b90077e2 	str	w2, [sp, #116]
 9b0:	94000000 	bl	0 <memblock_mark_nomap>
 9b4:	f9400761 	ldr	x1, [x27, #8]
 9b8:	b40000e1 	cbz	x1, 9d4 <paging_init+0x370>
 9bc:	f9400320 	ldr	x0, [x25]
 9c0:	91000421 	add	x1, x1, #0x1
 9c4:	cb000021 	sub	x1, x1, x0
 9c8:	94000000 	bl	0 <memblock_mark_nomap>
 9cc:	14000002 	b	9d4 <paging_init+0x370>
 9d0:	d4210000 	brk	#0x800
 9d4:	90000006 	adrp	x6, 0 <memblock>
 9d8:	910000c6 	add	x6, x6, #0x0
 9dc:	d281e268 	mov	x8, #0xf13                 	// #3859
 9e0:	d280e267 	mov	x7, #0x713                 	// #1811
 9e4:	d280030a 	mov	x10, #0x18                  	// #24
 9e8:	f2e01d08 	movk	x8, #0xe8, lsl #48
 9ec:	f94014c5 	ldr	x5, [x6, #40]
 9f0:	f2e01d07 	movk	x7, #0xe8, lsl #48
 9f4:	90000009 	adrp	x9, 0 <cpu_hwcaps>
 9f8:	f94008c0 	ldr	x0, [x6, #16]
 9fc:	f94014c1 	ldr	x1, [x6, #40]
 a00:	9b0a0400 	madd	x0, x0, x10, x1
 a04:	eb0000bf 	cmp	x5, x0
 a08:	54000402 	b.cs	a88 <paging_init+0x424>  // b.hs, b.nlast
 a0c:	a94008a1 	ldp	x1, x2, [x5]
 a10:	8b020022 	add	x2, x1, x2
 a14:	eb02003f 	cmp	x1, x2
 a18:	54000382 	b.cs	a88 <paging_init+0x424>  // b.hs, b.nlast
 a1c:	b94010a0 	ldr	w0, [x5, #16]
 a20:	37100300 	tbnz	w0, #2, a80 <paging_init+0x41c>
 a24:	14000002 	b	a2c <paging_init+0x3c8>
 a28:	14000005 	b	a3c <paging_init+0x3d8>
 a2c:	f9400120 	ldr	x0, [x9]
 a30:	f269001f 	tst	x0, #0x800000
 a34:	9a8800e3 	csel	x3, x7, x8, eq  // eq = none
 a38:	14000005 	b	a4c <paging_init+0x3e8>
 a3c:	d503201f 	nop
 a40:	aa0703e3 	mov	x3, x7
 a44:	14000002 	b	a4c <paging_init+0x3e8>
 a48:	aa0803e3 	mov	x3, x8
 a4c:	b94077e4 	ldr	w4, [sp, #116]
 a50:	aa1303e0 	mov	x0, x19
 a54:	f9003fe5 	str	x5, [sp, #120]
 a58:	97fffef5 	bl	62c <__map_memblock>
 a5c:	f9403fe5 	ldr	x5, [sp, #120]
 a60:	d280e267 	mov	x7, #0x713                 	// #1811
 a64:	d281e268 	mov	x8, #0xf13                 	// #3859
 a68:	90000000 	adrp	x0, 0 <memblock>
 a6c:	91000006 	add	x6, x0, #0x0
 a70:	90000009 	adrp	x9, 0 <cpu_hwcaps>
 a74:	f2e01d07 	movk	x7, #0xe8, lsl #48
 a78:	f2e01d08 	movk	x8, #0xe8, lsl #48
 a7c:	d280030a 	mov	x10, #0x18                  	// #24
 a80:	910060a5 	add	x5, x5, #0x18
 a84:	17ffffdd 	b	9f8 <paging_init+0x394>
 a88:	14000002 	b	a90 <paging_init+0x42c>
 a8c:	1400000a 	b	ab4 <paging_init+0x450>
 a90:	90000001 	adrp	x1, 0 <cpu_hwcaps>
 a94:	d280e263 	mov	x3, #0x713                 	// #1811
 a98:	d281e260 	mov	x0, #0xf13                 	// #3859
 a9c:	f2e01d03 	movk	x3, #0xe8, lsl #48
 aa0:	f9400021 	ldr	x1, [x1]
 aa4:	f2e01d00 	movk	x0, #0xe8, lsl #48
 aa8:	7209003f 	tst	w1, #0x800000
 aac:	9a800063 	csel	x3, x3, x0, eq  // eq = none
 ab0:	14000007 	b	acc <paging_init+0x468>
 ab4:	d503201f 	nop
 ab8:	d280e263 	mov	x3, #0x713                 	// #1811
 abc:	f2e01d03 	movk	x3, #0xe8, lsl #48
 ac0:	14000003 	b	acc <paging_init+0x468>
 ac4:	d281e263 	mov	x3, #0xf13                 	// #3859
 ac8:	f2e01d03 	movk	x3, #0xe8, lsl #48
 acc:	f94037e0 	ldr	x0, [sp, #104]
 ad0:	52800044 	mov	w4, #0x2                   	// #2
 ad4:	aa1c03e1 	mov	x1, x28
 ad8:	cb0002e2 	sub	x2, x23, x0
 adc:	aa1303e0 	mov	x0, x19
 ae0:	97fffed3 	bl	62c <__map_memblock>
 ae4:	aa1503e1 	mov	x1, x21
 ae8:	aa1c03e0 	mov	x0, x28
 aec:	94000000 	bl	0 <memblock_clear_nomap>
 af0:	f9400762 	ldr	x2, [x27, #8]
 af4:	b4000382 	cbz	x2, b64 <paging_init+0x500>
 af8:	14000002 	b	b00 <paging_init+0x49c>
 afc:	1400000a 	b	b24 <paging_init+0x4c0>
 b00:	90000001 	adrp	x1, 0 <cpu_hwcaps>
 b04:	d280e263 	mov	x3, #0x713                 	// #1811
 b08:	d281e260 	mov	x0, #0xf13                 	// #3859
 b0c:	f2e01d03 	movk	x3, #0xe8, lsl #48
 b10:	f9400021 	ldr	x1, [x1]
 b14:	f2e01d00 	movk	x0, #0xe8, lsl #48
 b18:	7209003f 	tst	w1, #0x800000
 b1c:	9a800063 	csel	x3, x3, x0, eq  // eq = none
 b20:	14000007 	b	b3c <paging_init+0x4d8>
 b24:	d503201f 	nop
 b28:	d280e263 	mov	x3, #0x713                 	// #1811
 b2c:	f2e01d03 	movk	x3, #0xe8, lsl #48
 b30:	14000003 	b	b3c <paging_init+0x4d8>
 b34:	d281e263 	mov	x3, #0xf13                 	// #3859
 b38:	f2e01d03 	movk	x3, #0xe8, lsl #48
 b3c:	f9400321 	ldr	x1, [x25]
 b40:	aa1303e0 	mov	x0, x19
 b44:	91000442 	add	x2, x2, #0x1
 b48:	52800064 	mov	w4, #0x3                   	// #3
 b4c:	97fffeb8 	bl	62c <__map_memblock>
 b50:	f9400320 	ldr	x0, [x25]
 b54:	f9400761 	ldr	x1, [x27, #8]
 b58:	91000421 	add	x1, x1, #0x1
 b5c:	cb000021 	sub	x1, x1, x0
 b60:	94000000 	bl	0 <memblock_clear_nomap>
 b64:	90000015 	adrp	x21, 0 <memstart_addr>
 b68:	d2800002 	mov	x2, #0x0                   	// #0
 b6c:	d2800001 	mov	x1, #0x0                   	// #0
 b70:	5280b940 	mov	w0, #0x5ca                 	// #1482
 b74:	94000000 	bl	2a8 <early_fixmap_init+0x244>
 b78:	f94002a2 	ldr	x2, [x21]
 b7c:	aa1403e1 	mov	x1, x20
 b80:	f94002c0 	ldr	x0, [x22]
 b84:	8b000040 	add	x0, x2, x0
 b88:	cb000021 	sub	x1, x1, x0
 b8c:	9240b839 	and	x25, x1, #0x7fffffffffff
 b90:	8b020339 	add	x25, x25, x2
 b94:	14000002 	b	b9c <paging_init+0x538>
 b98:	14000006 	b	bb0 <paging_init+0x54c>
 b9c:	90000002 	adrp	x2, 0 <cpu_hwcaps>
 ba0:	f9400042 	ldr	x2, [x2]
 ba4:	7211005f 	tst	w2, #0x8000
 ba8:	54000081 	b.ne	bb8 <paging_init+0x554>  // b.any
 bac:	14000009 	b	bd0 <paging_init+0x56c>
 bb0:	d503201f 	nop
 bb4:	14000007 	b	bd0 <paging_init+0x56c>
 bb8:	cb000294 	sub	x20, x20, x0
 bbc:	b2514021 	orr	x1, x1, #0xffff800000000000
 bc0:	b2514294 	orr	x20, x20, #0xffff800000000000
 bc4:	eb14003f 	cmp	x1, x20
 bc8:	54000d00 	b.eq	d68 <paging_init+0x704>  // b.none
 bcc:	d4210000 	brk	#0x800
 bd0:	f94002dc 	ldr	x28, [x22]
 bd4:	90000002 	adrp	x2, 3000 <empty_zero_page>
 bd8:	90000001 	adrp	x1, 0 <idmap_cpu_replace_ttbr1>
 bdc:	91000054 	add	x20, x2, #0x0
 be0:	91000021 	add	x1, x1, #0x0
 be4:	aa1403e0 	mov	x0, x20
 be8:	aa0103f7 	mov	x23, x1
 bec:	cb1c0000 	sub	x0, x0, x28
 bf0:	d5182000 	msr	ttbr0_el1, x0
 bf4:	d5033fdf 	isb
 bf8:	d503369f 	dsb	nshst
 bfc:	d508871f 	tlbi	vmalle1
 c00:	d503201f 	nop
 c04:	d503201f 	nop
 c08:	d503379f 	dsb	nsh
 c0c:	d5033fdf 	isb
 c10:	90000000 	adrp	x0, 0 <parse_rodata>
 c14:	aa0003fb 	mov	x27, x0
 c18:	f9400000 	ldr	x0, [x0]
 c1c:	f100401f 	cmp	x0, #0x10
 c20:	540000c0 	b.eq	c38 <paging_init+0x5d4>  // b.none
 c24:	d5382041 	mrs	x1, tcr_el1
 c28:	927ae421 	and	x1, x1, #0xffffffffffffffc0
 c2c:	aa010000 	orr	x0, x0, x1
 c30:	d5182040 	msr	tcr_el1, x0
 c34:	d5033fdf 	isb
 c38:	f94002c1 	ldr	x1, [x22]
 c3c:	90000000 	adrp	x0, 0 <idmap_pg_dir>
 c40:	f94002a2 	ldr	x2, [x21]
 c44:	91000000 	add	x0, x0, #0x0
 c48:	8b020022 	add	x2, x1, x2
 c4c:	cb020000 	sub	x0, x0, x2
 c50:	b2514002 	orr	x2, x0, #0xffff800000000000
 c54:	eb1a005f 	cmp	x2, x26
 c58:	540004c0 	b.eq	cf0 <paging_init+0x68c>  // b.none
 c5c:	aa1403f3 	mov	x19, x20
 c60:	cb010261 	sub	x1, x19, x1
 c64:	d5182001 	msr	ttbr0_el1, x1
 c68:	d5033fdf 	isb
 c6c:	f94002a2 	ldr	x2, [x21]
 c70:	9240b800 	and	x0, x0, #0x7fffffffffff
 c74:	aa1803e1 	mov	x1, x24
 c78:	8b020000 	add	x0, x0, x2
 c7c:	94000000 	bl	0 <cpu_do_switch_mm>
 c80:	aa1903e0 	mov	x0, x25
 c84:	cb1c02e1 	sub	x1, x23, x28
 c88:	d63f0020 	blr	x1
 c8c:	f94002c0 	ldr	x0, [x22]
 c90:	d5384101 	mrs	x1, sp_el0
 c94:	f941dc21 	ldr	x1, [x1, #952]
 c98:	cb000273 	sub	x19, x19, x0
 c9c:	d5182013 	msr	ttbr0_el1, x19
 ca0:	d5033fdf 	isb
 ca4:	d503369f 	dsb	nshst
 ca8:	d508871f 	tlbi	vmalle1
 cac:	d503201f 	nop
 cb0:	d503201f 	nop
 cb4:	d503379f 	dsb	nsh
 cb8:	d5033fdf 	isb
 cbc:	f9400360 	ldr	x0, [x27]
 cc0:	f100401f 	cmp	x0, #0x10
 cc4:	540000c0 	b.eq	cdc <paging_init+0x678>  // b.none
 cc8:	d5382040 	mrs	x0, tcr_el1
 ccc:	927ae400 	and	x0, x0, #0xffffffffffffffc0
 cd0:	b27c0000 	orr	x0, x0, #0x10
 cd4:	d5182040 	msr	tcr_el1, x0
 cd8:	d5033fdf 	isb
 cdc:	eb18003f 	cmp	x1, x24
 ce0:	54000220 	b.eq	d24 <paging_init+0x6c0>  // b.none
 ce4:	f9402020 	ldr	x0, [x1, #64]
 ce8:	eb1a001f 	cmp	x0, x26
 cec:	54000041 	b.ne	cf4 <paging_init+0x690>  // b.any
 cf0:	d4210000 	brk	#0x800
 cf4:	f94002c2 	ldr	x2, [x22]
 cf8:	cb020282 	sub	x2, x20, x2
 cfc:	d5182002 	msr	ttbr0_el1, x2
 d00:	d5033fdf 	isb
 d04:	b67800a0 	tbz	x0, #47, d18 <paging_init+0x6b4>
 d08:	f94002a2 	ldr	x2, [x21]
 d0c:	9240b800 	and	x0, x0, #0x7fffffffffff
 d10:	8b020000 	add	x0, x0, x2
 d14:	14000003 	b	d20 <paging_init+0x6bc>
 d18:	f94002c2 	ldr	x2, [x22]
 d1c:	cb020000 	sub	x0, x0, x2
 d20:	94000000 	bl	0 <cpu_do_switch_mm>
 d24:	f94002c2 	ldr	x2, [x22]
 d28:	90000000 	adrp	x0, 0 <init_pg_dir>
 d2c:	90000001 	adrp	x1, 0 <init_pg_end>
 d30:	91000000 	add	x0, x0, #0x0
 d34:	91000021 	add	x1, x1, #0x0
 d38:	f900231a 	str	x26, [x24, #64]
 d3c:	cb000021 	sub	x1, x1, x0
 d40:	cb020000 	sub	x0, x0, x2
 d44:	94000000 	bl	0 <memblock_free>
 d48:	94000000 	bl	0 <memblock_allow_resize>
 d4c:	a94153f3 	ldp	x19, x20, [sp, #16]
 d50:	a9425bf5 	ldp	x21, x22, [sp, #32]
 d54:	a94363f7 	ldp	x23, x24, [sp, #48]
 d58:	a9446bf9 	ldp	x25, x26, [sp, #64]
 d5c:	a94573fb 	ldp	x27, x28, [sp, #80]
 d60:	a8c87bfd 	ldp	x29, x30, [sp], #128
 d64:	d65f03c0 	ret
 d68:	b2400339 	orr	x25, x25, #0x1
 d6c:	17ffff99 	b	bd0 <paging_init+0x56c>

0000000000000d70 <__fixmap_remap_fdt>:
 d70:	a9bb7bfd 	stp	x29, x30, [sp, #-80]!
 d74:	910003fd 	mov	x29, sp
 d78:	a90153f3 	stp	x19, x20, [sp, #16]
 d7c:	a9025bf5 	stp	x21, x22, [sp, #32]
 d80:	a90363f7 	stp	x23, x24, [sp, #48]
 d84:	f90023f9 	str	x25, [sp, #64]
 d88:	b5000060 	cbnz	x0, d94 <__fixmap_remap_fdt+0x24>
 d8c:	d2800014 	mov	x20, #0x0                   	// #0
 d90:	1400002e 	b	e48 <__fixmap_remap_fdt+0xd8>
 d94:	f240081f 	tst	x0, #0x7
 d98:	54ffffa1 	b.ne	d8c <__fixmap_remap_fdt+0x1c>  // b.any
 d9c:	90000016 	adrp	x22, 0 <init_mm>
 da0:	910002d6 	add	x22, x22, #0x0
 da4:	12005019 	and	w25, w0, #0x1fffff
 da8:	926ba813 	and	x19, x0, #0xffffffffffe00000
 dac:	d2bfd015 	mov	x21, #0xfe800000            	// #4269801472
 db0:	aa0203f7 	mov	x23, x2
 db4:	f94022c0 	ldr	x0, [x22, #64]
 db8:	93407f34 	sxtw	x20, w25
 dbc:	f2cfbff5 	movk	x21, #0x7dff, lsl #32
 dc0:	aa0103f8 	mov	x24, x1
 dc4:	f2fffff5 	movk	x21, #0xffff, lsl #48
 dc8:	aa1303e1 	mov	x1, x19
 dcc:	aa1503e2 	mov	x2, x21
 dd0:	52800046 	mov	w6, #0x2                   	// #2
 dd4:	d2800005 	mov	x5, #0x0                   	// #0
 dd8:	aa1703e4 	mov	x4, x23
 ddc:	d2a00403 	mov	x3, #0x200000              	// #2097152
 de0:	94000000 	bl	0 <parse_rodata>
 de4:	b8756a81 	ldr	w1, [x20, x21]
 de8:	5281ba00 	mov	w0, #0xdd0                 	// #3536
 dec:	72bdbfc0 	movk	w0, #0xedfe, lsl #16
 df0:	8b150294 	add	x20, x20, x21
 df4:	6b00003f 	cmp	w1, w0
 df8:	54fffca1 	b.ne	d8c <__fixmap_remap_fdt+0x1c>  // b.any
 dfc:	b9400680 	ldr	w0, [x20, #4]
 e00:	5ac00800 	rev	w0, w0
 e04:	b9000300 	str	w0, [x24]
 e08:	7148001f 	cmp	w0, #0x200, lsl #12
 e0c:	54fffc0c 	b.gt	d8c <__fixmap_remap_fdt+0x1c>
 e10:	0b190000 	add	w0, w0, w25
 e14:	7148001f 	cmp	w0, #0x200, lsl #12
 e18:	54000189 	b.ls	e48 <__fixmap_remap_fdt+0xd8>  // b.plast
 e1c:	51000403 	sub	w3, w0, #0x1
 e20:	aa1703e4 	mov	x4, x23
 e24:	f94022c0 	ldr	x0, [x22, #64]
 e28:	32005063 	orr	w3, w3, #0x1fffff
 e2c:	11000463 	add	w3, w3, #0x1
 e30:	aa1503e2 	mov	x2, x21
 e34:	aa1303e1 	mov	x1, x19
 e38:	52800046 	mov	w6, #0x2                   	// #2
 e3c:	93407c63 	sxtw	x3, w3
 e40:	d2800005 	mov	x5, #0x0                   	// #0
 e44:	94000000 	bl	0 <parse_rodata>
 e48:	aa1403e0 	mov	x0, x20
 e4c:	a94153f3 	ldp	x19, x20, [sp, #16]
 e50:	a9425bf5 	ldp	x21, x22, [sp, #32]
 e54:	a94363f7 	ldp	x23, x24, [sp, #48]
 e58:	f94023f9 	ldr	x25, [sp, #64]
 e5c:	a8c57bfd 	ldp	x29, x30, [sp], #80
 e60:	d65f03c0 	ret

0000000000000e64 <fixmap_remap_fdt>:
 e64:	a9bc7bfd 	stp	x29, x30, [sp, #-64]!
 e68:	910003fd 	mov	x29, sp
 e6c:	a90153f3 	stp	x19, x20, [sp, #16]
 e70:	90000013 	adrp	x19, 0 <__stack_chk_guard>
 e74:	91000273 	add	x19, x19, #0x0
 e78:	f90013f5 	str	x21, [sp, #32]
 e7c:	aa0003f5 	mov	x21, x0
 e80:	f9400260 	ldr	x0, [x19]
 e84:	f9001fe0 	str	x0, [sp, #56]
 e88:	d2800000 	mov	x0, #0x0                   	// #0
 e8c:	14000002 	b	e94 <fixmap_remap_fdt+0x30>
 e90:	1400000a 	b	eb8 <fixmap_remap_fdt+0x54>
 e94:	90000001 	adrp	x1, 0 <cpu_hwcaps>
 e98:	d280f262 	mov	x2, #0x793                 	// #1939
 e9c:	d281f260 	mov	x0, #0xf93                 	// #3987
 ea0:	f2e01c02 	movk	x2, #0xe0, lsl #48
 ea4:	f9400021 	ldr	x1, [x1]
 ea8:	f2e01c00 	movk	x0, #0xe0, lsl #48
 eac:	7209003f 	tst	w1, #0x800000
 eb0:	9a800042 	csel	x2, x2, x0, eq  // eq = none
 eb4:	14000007 	b	ed0 <fixmap_remap_fdt+0x6c>
 eb8:	d503201f 	nop
 ebc:	d280f262 	mov	x2, #0x793                 	// #1939
 ec0:	f2e01c02 	movk	x2, #0xe0, lsl #48
 ec4:	14000003 	b	ed0 <fixmap_remap_fdt+0x6c>
 ec8:	d281f262 	mov	x2, #0xf93                 	// #3987
 ecc:	f2e01c02 	movk	x2, #0xe0, lsl #48
 ed0:	9100d3e1 	add	x1, sp, #0x34
 ed4:	aa1503e0 	mov	x0, x21
 ed8:	94000000 	bl	d70 <__fixmap_remap_fdt>
 edc:	aa0003f4 	mov	x20, x0
 ee0:	b4000080 	cbz	x0, ef0 <fixmap_remap_fdt+0x8c>
 ee4:	b98037e1 	ldrsw	x1, [sp, #52]
 ee8:	aa1503e0 	mov	x0, x21
 eec:	94000000 	bl	0 <memblock_reserve>
 ef0:	aa1403e0 	mov	x0, x20
 ef4:	f9401fe2 	ldr	x2, [sp, #56]
 ef8:	f9400261 	ldr	x1, [x19]
 efc:	ca010041 	eor	x1, x2, x1
 f00:	b4000041 	cbz	x1, f08 <fixmap_remap_fdt+0xa4>
 f04:	94000000 	bl	0 <__stack_chk_fail>
 f08:	a94153f3 	ldp	x19, x20, [sp, #16]
 f0c:	f94013f5 	ldr	x21, [sp, #32]
 f10:	a8c47bfd 	ldp	x29, x30, [sp], #64
 f14:	d65f03c0 	ret

Disassembly of section .meminit.text:

0000000000000000 <vmemmap_populate>:
   0:	a9ba7bfd 	stp	x29, x30, [sp, #-96]!
   4:	910003fd 	mov	x29, sp
   8:	a9025bf5 	stp	x21, x22, [sp, #32]
   c:	aa0103f6 	mov	x22, x1
  10:	2a0203f5 	mov	w21, w2
  14:	a90363f7 	stp	x23, x24, [sp, #48]
  18:	d281e238 	mov	x24, #0xf11                 	// #3857
  1c:	d280e237 	mov	x23, #0x711                 	// #1809
  20:	a9046bf9 	stp	x25, x26, [sp, #64]
  24:	d100043a 	sub	x26, x1, #0x1
  28:	90000019 	adrp	x25, 0 <memstart_addr>
  2c:	f9002bfb 	str	x27, [sp, #80]
  30:	aa0003fb 	mov	x27, x0
  34:	f2e00c18 	movk	x24, #0x60, lsl #48
  38:	f2e00c17 	movk	x23, #0x60, lsl #48
  3c:	a90153f3 	stp	x19, x20, [sp, #16]
  40:	91480374 	add	x20, x27, #0x200, lsl #12
  44:	926baa94 	and	x20, x20, #0xffffffffffe00000
  48:	2a1503e1 	mov	w1, w21
  4c:	d1000682 	sub	x2, x20, #0x1
  50:	aa1b03e0 	mov	x0, x27
  54:	eb1a005f 	cmp	x2, x26
  58:	9a963294 	csel	x20, x20, x22, cc  // cc = lo, ul, last
  5c:	94000000 	bl	0 <vmemmap_pgd_populate>
  60:	b5000060 	cbnz	x0, 6c <vmemmap_populate+0x6c>
  64:	12800160 	mov	w0, #0xfffffff4            	// #-12
  68:	14000032 	b	130 <vmemmap_populate+0x130>
  6c:	2a1503e2 	mov	w2, w21
  70:	aa1b03e1 	mov	x1, x27
  74:	94000000 	bl	0 <vmemmap_pud_populate>
  78:	b4ffff60 	cbz	x0, 64 <vmemmap_populate+0x64>
  7c:	d3557761 	ubfx	x1, x27, #21, #9
  80:	f9400333 	ldr	x19, [x25]
  84:	d37df021 	lsl	x1, x1, #3
  88:	f9400000 	ldr	x0, [x0]
  8c:	cb130033 	sub	x19, x1, x19
  90:	92748c01 	and	x1, x0, #0xfffffffff000
  94:	8b010273 	add	x19, x19, x1
  98:	b2514273 	orr	x19, x19, #0xffff800000000000
  9c:	f9400260 	ldr	x0, [x19]
  a0:	b5000360 	cbnz	x0, 10c <vmemmap_populate+0x10c>
  a4:	2a1503e1 	mov	w1, w21
  a8:	d2a00400 	mov	x0, #0x200000              	// #2097152
  ac:	94000000 	bl	0 <vmemmap_alloc_block_buf>
  b0:	b4fffda0 	cbz	x0, 64 <vmemmap_populate+0x64>
  b4:	b67800a0 	tbz	x0, #47, c8 <vmemmap_populate+0xc8>
  b8:	f9400321 	ldr	x1, [x25]
  bc:	9240b800 	and	x0, x0, #0x7fffffffffff
  c0:	8b010001 	add	x1, x0, x1
  c4:	14000004 	b	d4 <vmemmap_populate+0xd4>
  c8:	90000001 	adrp	x1, 0 <vmemmap_populate>
  cc:	f9400021 	ldr	x1, [x1]
  d0:	cb010001 	sub	x1, x0, x1
  d4:	14000002 	b	dc <vmemmap_populate+0xdc>
  d8:	14000006 	b	f0 <vmemmap_populate+0xf0>
  dc:	90000000 	adrp	x0, 0 <cpu_hwcaps>
  e0:	f9400000 	ldr	x0, [x0]
  e4:	f269001f 	tst	x0, #0x800000
  e8:	9a9802e2 	csel	x2, x23, x24, eq  // eq = none
  ec:	14000005 	b	100 <vmemmap_populate+0x100>
  f0:	d503201f 	nop
  f4:	aa1703e2 	mov	x2, x23
  f8:	14000002 	b	100 <vmemmap_populate+0x100>
  fc:	aa1803e2 	mov	x2, x24
 100:	aa1303e0 	mov	x0, x19
 104:	94000000 	bl	488 <pmd_set_huge>
 108:	14000006 	b	120 <vmemmap_populate+0x120>
 10c:	aa1b03e2 	mov	x2, x27
 110:	aa1303e0 	mov	x0, x19
 114:	aa1403e3 	mov	x3, x20
 118:	2a1503e1 	mov	w1, w21
 11c:	94000000 	bl	0 <vmemmap_verify>
 120:	eb16029f 	cmp	x20, x22
 124:	aa1403fb 	mov	x27, x20
 128:	54fff8c1 	b.ne	40 <vmemmap_populate+0x40>  // b.any
 12c:	52800000 	mov	w0, #0x0                   	// #0
 130:	a94153f3 	ldp	x19, x20, [sp, #16]
 134:	a9425bf5 	ldp	x21, x22, [sp, #32]
 138:	a94363f7 	ldp	x23, x24, [sp, #48]
 13c:	a9446bf9 	ldp	x25, x26, [sp, #64]
 140:	f9402bfb 	ldr	x27, [sp, #80]
 144:	a8c67bfd 	ldp	x29, x30, [sp], #96
 148:	d65f03c0 	ret
